(dp0
I1
(dp1
S'index'
p2
S'0001'
p3
sS'direction'
p4
S'B'
p5
sS'train_acceleration'
p6
NsS'misrouted'
p7
S'False'
p8
sS'train_length'
p9
NsS'train_speed'
p10
NsS'train_type'
p11
S'Default'
p12
sS'delay'
p13
I0
sS'headway_prev'
p14
NsS'total_weight'
p15
I3144
sS'headway_next'
p16
I20
sS'time_departure'
p17
S'2018-01-01 00:00:00'
p18
sS'time_arrival'
p19
g18
sS'train_deceleration'
p20
NsS'Future_parameters'
p21
NssI2
(dp22
g2
S'0002'
p23
sg4
S'A'
p24
sg6
Nsg7
g8
sg9
Nsg10
Nsg11
g12
sg13
I0
sg14
I20
sg15
I3624
sg16
I14
sg17
S'2018-01-01 00:00:00'
p25
sg19
g25
sg20
Nsg21
NssI3
(dp26
g2
S'0003'
p27
sg4
g5
sg6
Nsg7
g8
sg9
Nsg10
Nsg11
g12
sg13
I0
sg14
I14
sg15
I4622
sg16
I17
sg17
S'2018-01-01 00:14:00'
p28
sg19
g28
sg20
Nsg21
NssI4
(dp29
g2
S'0004'
p30
sg4
g5
sg6
Nsg7
g8
sg9
Nsg10
Nsg11
g12
sg13
I0
sg14
I17
sg15
I4536
sg16
I18
sg17
S'2018-01-01 00:31:00'
p31
sg19
g31
sg20
Nsg21
NssI5
(dp32
g2
S'0005'
p33
sg4
g24
sg6
Nsg7
g8
sg9
Nsg10
Nsg11
g12
sg13
I0
sg14
I18
sg15
I5634
sg16
I18
sg17
S'2018-01-01 00:49:00'
p34
sg19
g34
sg20
Nsg21
NssI6
(dp35
g2
S'0006'
p36
sg4
g5
sg6
Nsg7
g8
sg9
Nsg10
Nsg11
g12
sg13
I0
sg14
I18
sg15
I3461
sg16
I14
sg17
S'2018-01-01 01:07:00'
p37
sg19
g37
sg20
Nsg21
NssI7
(dp38
g2
S'0007'
p39
sg4
g5
sg6
Nsg7
g8
sg9
Nsg10
Nsg11
g12
sg13
I0
sg14
I14
sg15
I4926
sg16
I21
sg17
S'2018-01-01 01:21:00'
p40
sg19
g40
sg20
Nsg21
NssI8
(dp41
g2
S'0008'
p42
sg4
g5
sg6
Nsg7
g8
sg9
Nsg10
Nsg11
g12
sg13
I0
sg14
I21
sg15
I4569
sg16
I15
sg17
S'2018-01-01 01:42:00'
p43
sg19
g43
sg20
Nsg21
NssI9
(dp44
g2
S'0009'
p45
sg4
g24
sg6
Nsg7
g8
sg9
Nsg10
Nsg11
g12
sg13
I0
sg14
I15
sg15
I3999
sg16
I22
sg17
S'2018-01-01 01:57:00'
p46
sg19
g46
sg20
Nsg21
NssI10
(dp47
g2
S'0010'
p48
sg4
g24
sg6
Nsg7
g8
sg9
Nsg10
Nsg11
g12
sg13
I0
sg14
I22
sg15
I6661
sg16
I15
sg17
S'2018-01-01 02:19:00'
p49
sg19
g49
sg20
Nsg21
NssI11
(dp50
g2
S'0011'
p51
sg4
g24
sg6
Nsg7
g8
sg9
Nsg10
Nsg11
g12
sg13
I0
sg14
I15
sg15
I6790
sg16
I11
sg17
S'2018-01-01 02:34:00'
p52
sg19
g52
sg20
Nsg21
NssI12
(dp53
g2
S'0012'
p54
sg4
g24
sg6
Nsg7
g8
sg9
Nsg10
Nsg11
g12
sg13
I0
sg14
I11
sg15
I5940
sg16
I20
sg17
S'2018-01-01 02:39:00'
p55
sg19
g55
sg20
Nsg21
NssI13
(dp56
g2
S'0013'
p57
sg4
g5
sg6
Nsg7
g8
sg9
Nsg10
Nsg11
g12
sg13
I0
sg14
I20
sg15
I6454
sg16
I16
sg17
S'2018-01-01 02:59:00'
p58
sg19
g58
sg20
Nsg21
NssI14
(dp59
g2
S'0014'
p60
sg4
g24
sg6
Nsg7
g8
sg9
Nsg10
Nsg11
g12
sg13
I0
sg14
I16
sg15
I4547
sg16
I13
sg17
S'2018-01-01 03:15:00'
p61
sg19
g61
sg20
Nsg21
NssI15
(dp62
g2
S'0015'
p63
sg4
g24
sg6
Nsg7
g8
sg9
Nsg10
Nsg11
g12
sg13
I0
sg14
I13
sg15
I5376
sg16
I17
sg17
S'2018-01-01 03:28:00'
p64
sg19
g64
sg20
Nsg21
NssI16
(dp65
g2
S'0016'
p66
sg4
g24
sg6
Nsg7
g8
sg9
Nsg10
Nsg11
g12
sg13
I0
sg14
I17
sg15
I7392
sg16
I14
sg17
S'2018-01-01 03:29:00'
p67
sg19
g67
sg20
Nsg21
NssI17
(dp68
g2
S'0017'
p69
sg4
g24
sg6
Nsg7
g8
sg9
Nsg10
Nsg11
g12
sg13
I0
sg14
I14
sg15
I4157
sg16
I12
sg17
S'2018-01-01 03:43:00'
p70
sg19
g70
sg20
Nsg21
NssI18
(dp71
g2
S'0018'
p72
sg4
g24
sg6
Nsg7
g8
sg9
Nsg10
Nsg11
g12
sg13
I0
sg14
I12
sg15
I6743
sg16
I17
sg17
S'2018-01-01 03:48:00'
p73
sg19
g73
sg20
Nsg21
NssI19
(dp74
g2
S'0019'
p75
sg4
g24
sg6
Nsg7
g8
sg9
Nsg10
Nsg11
g12
sg13
I0
sg14
I17
sg15
I5787
sg16
I15
sg17
S'2018-01-01 03:50:00'
p76
sg19
g76
sg20
Nsg21
NssI20
(dp77
g2
S'0020'
p78
sg4
g5
sg6
Nsg7
g8
sg9
Nsg10
Nsg11
g12
sg13
I0
sg14
I15
sg15
I4758
sg16
I15
sg17
S'2018-01-01 04:05:00'
p79
sg19
g79
sg20
Nsg21
NssI21
(dp80
g2
S'0021'
p81
sg4
g5
sg6
Nsg7
g8
sg9
Nsg10
Nsg11
g12
sg13
I0
sg14
I15
sg15
I3364
sg16
I16
sg17
S'2018-01-01 04:20:00'
p82
sg19
g82
sg20
Nsg21
NssI22
(dp83
g2
S'0022'
p84
sg4
g24
sg6
Nsg7
g8
sg9
Nsg10
Nsg11
g12
sg13
I0
sg14
I16
sg15
I3408
sg16
I10
sg17
S'2018-01-01 04:36:00'
p85
sg19
g85
sg20
Nsg21
NssI23
(dp86
g2
S'0023'
p87
sg4
g5
sg6
Nsg7
g8
sg9
Nsg10
Nsg11
g12
sg13
I0
sg14
I10
sg15
I5407
sg16
I15
sg17
S'2018-01-01 05:06:00'
p88
sg19
g88
sg20
Nsg21
NssI24
(dp89
g2
S'0024'
p90
sg4
g24
sg6
Nsg7
g8
sg9
Nsg10
Nsg11
g12
sg13
I0
sg14
I15
sg15
I1488
sg16
I15
sg17
S'2018-01-01 05:37:00'
p91
sg19
g91
sg20
Nsg21
NssI25
(dp92
g2
S'0025'
p93
sg4
g5
sg6
Nsg7
g8
sg9
Nsg10
Nsg11
g12
sg13
I0
sg14
I15
sg15
I4271
sg16
I13
sg17
S'2018-01-01 05:52:00'
p94
sg19
g94
sg20
Nsg21
NssI26
(dp95
g2
S'0026'
p96
sg4
g24
sg6
Nsg7
g8
sg9
Nsg10
Nsg11
g12
sg13
I0
sg14
I13
sg15
I6801
sg16
I11
sg17
S'2018-01-01 06:05:00'
p97
sg19
g97
sg20
Nsg21
NssI27
(dp98
g2
S'0027'
p99
sg4
g24
sg6
Nsg7
g8
sg9
Nsg10
Nsg11
g12
sg13
I0
sg14
I11
sg15
I3099
sg16
I19
sg17
S'2018-01-01 06:37:00'
p100
sg19
g100
sg20
Nsg21
NssI28
(dp101
g2
S'0028'
p102
sg4
g5
sg6
Nsg7
g8
sg9
Nsg10
Nsg11
g12
sg13
I0
sg14
I19
sg15
I4291
sg16
I11
sg17
S'2018-01-01 06:38:00'
p103
sg19
g103
sg20
Nsg21
NssI29
(dp104
g2
S'0029'
p105
sg4
g5
sg6
Nsg7
g8
sg9
Nsg10
Nsg11
g12
sg13
I0
sg14
I11
sg15
I2984
sg16
I21
sg17
S'2018-01-01 06:49:00'
p106
sg19
g106
sg20
Nsg21
NssI30
(dp107
g2
S'0030'
p108
sg4
g5
sg6
Nsg7
g8
sg9
Nsg10
Nsg11
g12
sg13
I0
sg14
I21
sg15
I6310
sg16
I10
sg17
S'2018-01-01 07:10:00'
p109
sg19
g109
sg20
Nsg21
NssI31
(dp110
g2
S'0031'
p111
sg4
g24
sg6
Nsg7
g8
sg9
Nsg10
Nsg11
g12
sg13
I0
sg14
I10
sg15
I5522
sg16
I16
sg17
S'2018-01-01 07:20:00'
p112
sg19
g112
sg20
Nsg21
NssI32
(dp113
g2
S'0032'
p114
sg4
g5
sg6
Nsg7
g8
sg9
Nsg10
Nsg11
g12
sg13
I0
sg14
I16
sg15
I5124
sg16
I12
sg17
S'2018-01-01 07:50:00'
p115
sg19
g115
sg20
Nsg21
NssI33
(dp116
g2
S'0033'
p117
sg4
g5
sg6
Nsg7
g8
sg9
Nsg10
Nsg11
g12
sg13
I0
sg14
I12
sg15
I4649
sg16
I11
sg17
S'2018-01-01 08:02:00'
p118
sg19
g118
sg20
Nsg21
NssI34
(dp119
g2
S'0034'
p120
sg4
g5
sg6
Nsg7
g8
sg9
Nsg10
Nsg11
g12
sg13
I0
sg14
I11
sg15
I6451
sg16
I18
sg17
S'2018-01-01 08:10:00'
p121
sg19
g121
sg20
Nsg21
NssI35
(dp122
g2
S'0035'
p123
sg4
g5
sg6
Nsg7
g8
sg9
Nsg10
Nsg11
g12
sg13
I0
sg14
I18
sg15
I5773
sg16
I10
sg17
S'2018-01-01 08:12:00'
p124
sg19
g124
sg20
Nsg21
NssI36
(dp125
g2
S'0036'
p126
sg4
g24
sg6
Nsg7
g8
sg9
Nsg10
Nsg11
g12
sg13
I0
sg14
I10
sg15
I5732
sg16
I20
sg17
S'2018-01-01 08:15:00'
p127
sg19
g127
sg20
Nsg21
NssI37
(dp128
g2
S'0037'
p129
sg4
g24
sg6
Nsg7
g8
sg9
Nsg10
Nsg11
g12
sg13
I0
sg14
I20
sg15
I4038
sg16
I16
sg17
S'2018-01-01 08:35:00'
p130
sg19
g130
sg20
Nsg21
NssI38
(dp131
g2
S'0038'
p132
sg4
g5
sg6
Nsg7
g8
sg9
Nsg10
Nsg11
g12
sg13
I0
sg14
I16
sg15
I4181
sg16
I16
sg17
S'2018-01-01 08:51:00'
p133
sg19
g133
sg20
Nsg21
NssI39
(dp134
g2
S'0039'
p135
sg4
g24
sg6
Nsg7
g8
sg9
Nsg10
Nsg11
g12
sg13
I0
sg14
I16
sg15
I5692
sg16
I15
sg17
S'2018-01-01 09:07:00'
p136
sg19
g136
sg20
Nsg21
NssI40
(dp137
g2
S'0040'
p138
sg4
g5
sg6
Nsg7
g8
sg9
Nsg10
Nsg11
g12
sg13
I0
sg14
I15
sg15
I6646
sg16
I12
sg17
S'2018-01-01 09:22:00'
p139
sg19
g139
sg20
Nsg21
NssI41
(dp140
g2
S'0041'
p141
sg4
g24
sg6
Nsg7
g8
sg9
Nsg10
Nsg11
g12
sg13
I0
sg14
I12
sg15
I6749
sg16
I19
sg17
S'2018-01-01 09:51:00'
p142
sg19
g142
sg20
Nsg21
NssI42
(dp143
g2
S'0042'
p144
sg4
g24
sg6
Nsg7
g8
sg9
Nsg10
Nsg11
g12
sg13
I0
sg14
I19
sg15
I5391
sg16
I12
sg17
S'2018-01-01 10:10:00'
p145
sg19
g145
sg20
Nsg21
NssI43
(dp146
g2
S'0043'
p147
sg4
g24
sg6
Nsg7
g8
sg9
Nsg10
Nsg11
g12
sg13
I0
sg14
I12
sg15
I3852
sg16
I20
sg17
S'2018-01-01 10:22:00'
p148
sg19
g148
sg20
Nsg21
NssI44
(dp149
g2
S'0044'
p150
sg4
g5
sg6
Nsg7
g8
sg9
Nsg10
Nsg11
g12
sg13
I0
sg14
I20
sg15
I6725
sg16
I14
sg17
S'2018-01-01 10:42:00'
p151
sg19
g151
sg20
Nsg21
NssI45
(dp152
g2
S'0045'
p153
sg4
g5
sg6
Nsg7
g8
sg9
Nsg10
Nsg11
g12
sg13
I0
sg14
I14
sg15
I2565
sg16
I16
sg17
S'2018-01-01 10:56:00'
p154
sg19
g154
sg20
Nsg21
NssI46
(dp155
g2
S'0046'
p156
sg4
g24
sg6
Nsg7
g8
sg9
Nsg10
Nsg11
g12
sg13
I0
sg14
I16
sg15
I4844
sg16
I18
sg17
S'2018-01-01 10:57:00'
p157
sg19
g157
sg20
Nsg21
NssI47
(dp158
g2
S'0047'
p159
sg4
g5
sg6
Nsg7
g8
sg9
Nsg10
Nsg11
g12
sg13
I0
sg14
I18
sg15
I4851
sg16
I15
sg17
S'2018-01-01 11:15:00'
p160
sg19
g160
sg20
Nsg21
NssI48
(dp161
g2
S'0048'
p162
sg4
g24
sg6
Nsg7
g8
sg9
Nsg10
Nsg11
g12
sg13
I0
sg14
I15
sg15
I4145
sg16
I12
sg17
S'2018-01-01 11:30:00'
p163
sg19
g163
sg20
Nsg21
NssI49
(dp164
g2
S'0049'
p165
sg4
g24
sg6
Nsg7
g8
sg9
Nsg10
Nsg11
g12
sg13
I0
sg14
I12
sg15
I5469
sg16
I12
sg17
S'2018-01-01 11:59:00'
p166
sg19
g166
sg20
Nsg21
NssI50
(dp167
g2
S'0050'
p168
sg4
g5
sg6
Nsg7
g8
sg9
Nsg10
Nsg11
g12
sg13
I0
sg14
I12
sg15
I3614
sg16
I16
sg17
S'2018-01-01 12:06:00'
p169
sg19
g169
sg20
Nsg21
NssI51
(dp170
g2
S'0051'
p171
sg4
g5
sg6
Nsg7
g8
sg9
Nsg10
Nsg11
g12
sg13
I0
sg14
I16
sg15
I3316
sg16
I14
sg17
S'2018-01-01 12:22:00'
p172
sg19
g172
sg20
Nsg21
NssI52
(dp173
g2
S'0052'
p174
sg4
g5
sg6
Nsg7
g8
sg9
Nsg10
Nsg11
g12
sg13
I0
sg14
I14
sg15
I4432
sg16
I10
sg17
S'2018-01-01 12:23:00'
p175
sg19
g175
sg20
Nsg21
NssI53
(dp176
g2
S'0053'
p177
sg4
g5
sg6
Nsg7
g8
sg9
Nsg10
Nsg11
g12
sg13
I0
sg14
I10
sg15
I8950
sg16
I16
sg17
S'2018-01-01 12:30:00'
p178
sg19
g178
sg20
Nsg21
NssI54
(dp179
g2
S'0054'
p180
sg4
g5
sg6
Nsg7
g8
sg9
Nsg10
Nsg11
g12
sg13
I0
sg14
I16
sg15
I4991
sg16
I14
sg17
S'2018-01-01 12:35:00'
p181
sg19
g181
sg20
Nsg21
NssI55
(dp182
g2
S'0055'
p183
sg4
g24
sg6
Nsg7
g8
sg9
Nsg10
Nsg11
g12
sg13
I0
sg14
I14
sg15
I6093
sg16
I10
sg17
S'2018-01-01 12:36:00'
p184
sg19
g184
sg20
Nsg21
NssI56
(dp185
g2
S'0056'
p186
sg4
g24
sg6
Nsg7
g8
sg9
Nsg10
Nsg11
g12
sg13
I0
sg14
I10
sg15
I3798
sg16
I14
sg17
S'2018-01-01 13:08:00'
p187
sg19
g187
sg20
Nsg21
NssI57
(dp188
g2
S'0057'
p189
sg4
g5
sg6
Nsg7
g8
sg9
Nsg10
Nsg11
g12
sg13
I0
sg14
I14
sg15
I1860
sg16
I14
sg17
S'2018-01-01 13:15:00'
p190
sg19
g190
sg20
Nsg21
NssI58
(dp191
g2
S'0058'
p192
sg4
g24
sg6
Nsg7
g8
sg9
Nsg10
Nsg11
g12
sg13
I0
sg14
I14
sg15
I4284
sg16
I13
sg17
S'2018-01-01 13:29:00'
p193
sg19
g193
sg20
Nsg21
NssI59
(dp194
g2
S'0059'
p195
sg4
g24
sg6
Nsg7
g8
sg9
Nsg10
Nsg11
g12
sg13
I0
sg14
I13
sg15
I4392
sg16
I17
sg17
S'2018-01-01 13:58:00'
p196
sg19
g196
sg20
Nsg21
NssI60
(dp197
g2
S'0060'
p198
sg4
g24
sg6
Nsg7
g8
sg9
Nsg10
Nsg11
g12
sg13
I0
sg14
I17
sg15
I1389
sg16
I11
sg17
S'2018-01-01 13:59:00'
p199
sg19
g199
sg20
Nsg21
NssI61
(dp200
g2
S'0061'
p201
sg4
g5
sg6
Nsg7
g8
sg9
Nsg10
Nsg11
g12
sg13
I0
sg14
I11
sg15
I4752
sg16
I14
sg17
S'2018-01-01 14:02:00'
p202
sg19
g202
sg20
Nsg21
NssI62
(dp203
g2
S'0062'
p204
sg4
g5
sg6
Nsg7
g8
sg9
Nsg10
Nsg11
g12
sg13
I0
sg14
I14
sg15
I3675
sg16
I16
sg17
S'2018-01-01 14:33:00'
p205
sg19
g205
sg20
Nsg21
NssI63
(dp206
g2
S'0063'
p207
sg4
g5
sg6
Nsg7
g8
sg9
Nsg10
Nsg11
g12
sg13
I0
sg14
I16
sg15
I5695
sg16
I16
sg17
S'2018-01-01 14:34:00'
p208
sg19
g208
sg20
Nsg21
NssI64
(dp209
g2
S'0064'
p210
sg4
g24
sg6
Nsg7
g8
sg9
Nsg10
Nsg11
g12
sg13
I0
sg14
I16
sg15
I4120
sg16
I12
sg17
S'2018-01-01 14:50:00'
p211
sg19
g211
sg20
Nsg21
NssI65
(dp212
g2
S'0065'
p213
sg4
g5
sg6
Nsg7
g8
sg9
Nsg10
Nsg11
g12
sg13
I0
sg14
I12
sg15
I3169
sg16
I11
sg17
S'2018-01-01 15:02:00'
p214
sg19
g214
sg20
Nsg21
NssI66
(dp215
g2
S'0066'
p216
sg4
g24
sg6
Nsg7
g8
sg9
Nsg10
Nsg11
g12
sg13
I0
sg14
I11
sg15
I5719
sg16
I17
sg17
S'2018-01-01 15:35:00'
p217
sg19
g217
sg20
Nsg21
NssI67
(dp218
g2
S'0067'
p219
sg4
g5
sg6
Nsg7
g8
sg9
Nsg10
Nsg11
g12
sg13
I0
sg14
I17
sg15
I5767
sg16
I16
sg17
S'2018-01-01 15:52:00'
p220
sg19
g220
sg20
Nsg21
NssI68
(dp221
g2
S'0068'
p222
sg4
g24
sg6
Nsg7
g8
sg9
Nsg10
Nsg11
g12
sg13
I0
sg14
I16
sg15
I5094
sg16
I11
sg17
S'2018-01-01 16:08:00'
p223
sg19
g223
sg20
Nsg21
NssI69
(dp224
g2
S'0069'
p225
sg4
g5
sg6
Nsg7
g8
sg9
Nsg10
Nsg11
g12
sg13
I0
sg14
I11
sg15
I3970
sg16
I20
sg17
S'2018-01-01 16:37:00'
p226
sg19
g226
sg20
Nsg21
NssI70
(dp227
g2
S'0070'
p228
sg4
g24
sg6
Nsg7
g8
sg9
Nsg10
Nsg11
g12
sg13
I0
sg14
I20
sg15
I5669
sg16
I12
sg17
S'2018-01-01 16:57:00'
p229
sg19
g229
sg20
Nsg21
NssI71
(dp230
g2
S'0071'
p231
sg4
g5
sg6
Nsg7
g8
sg9
Nsg10
Nsg11
g12
sg13
I0
sg14
I12
sg15
I6179
sg16
I13
sg17
S'2018-01-01 17:09:00'
p232
sg19
g232
sg20
Nsg21
NssI72
(dp233
g2
S'0072'
p234
sg4
g24
sg6
Nsg7
g8
sg9
Nsg10
Nsg11
g12
sg13
I0
sg14
I13
sg15
I5774
sg16
I14
sg17
S'2018-01-01 17:40:00'
p235
sg19
g235
sg20
Nsg21
NssI73
(dp236
g2
S'0073'
p237
sg4
g5
sg6
Nsg7
g8
sg9
Nsg10
Nsg11
g12
sg13
I0
sg14
I14
sg15
I-90
sg16
I11
sg17
S'2018-01-01 18:09:00'
p238
sg19
g238
sg20
Nsg21
NssI74
(dp239
g2
S'0074'
p240
sg4
g24
sg6
Nsg7
g8
sg9
Nsg10
Nsg11
g12
sg13
I0
sg14
I11
sg15
I6336
sg16
I16
sg17
S'2018-01-01 18:40:00'
p241
sg19
g241
sg20
Nsg21
NssI75
(dp242
g2
S'0075'
p243
sg4
g24
sg6
Nsg7
g8
sg9
Nsg10
Nsg11
g12
sg13
I0
sg14
I16
sg15
I5671
sg16
I13
sg17
S'2018-01-01 19:09:00'
p244
sg19
g244
sg20
Nsg21
NssI76
(dp245
g2
S'0076'
p246
sg4
g24
sg6
Nsg7
g8
sg9
Nsg10
Nsg11
g12
sg13
I0
sg14
I13
sg15
I5845
sg16
I13
sg17
S'2018-01-01 19:11:00'
p247
sg19
g247
sg20
Nsg21
NssI77
(dp248
g2
S'0077'
p249
sg4
g5
sg6
Nsg7
g8
sg9
Nsg10
Nsg11
g12
sg13
I0
sg14
I13
sg15
I4513
sg16
I9
sg17
S'2018-01-01 19:16:00'
p250
sg19
g250
sg20
Nsg21
NssI78
(dp251
g2
S'0078'
p252
sg4
g24
sg6
Nsg7
g8
sg9
Nsg10
Nsg11
g12
sg13
I0
sg14
I9
sg15
I3751
sg16
I9
sg17
S'2018-01-01 19:50:00'
p253
sg19
g253
sg20
Nsg21
NssI79
(dp254
g2
S'0079'
p255
sg4
g24
sg6
Nsg7
g8
sg9
Nsg10
Nsg11
g12
sg13
I0
sg14
I9
sg15
I5211
sg16
I13
sg17
S'2018-01-01 20:28:00'
p256
sg19
g256
sg20
Nsg21
NssI80
(dp257
g2
S'0080'
p258
sg4
g5
sg6
Nsg7
g8
sg9
Nsg10
Nsg11
g12
sg13
I0
sg14
I13
sg15
I5109
sg16
I16
sg17
S'2018-01-01 20:37:00'
p259
sg19
g259
sg20
Nsg21
NssI81
(dp260
g2
S'0081'
p261
sg4
g5
sg6
Nsg7
g8
sg9
Nsg10
Nsg11
g12
sg13
I0
sg14
I16
sg15
I3704
sg16
I13
sg17
S'2018-01-01 20:53:00'
p262
sg19
g262
sg20
Nsg21
NssI82
(dp263
g2
S'0082'
p264
sg4
g24
sg6
Nsg7
g8
sg9
Nsg10
Nsg11
g12
sg13
I0
sg14
I13
sg15
I4295
sg16
I10
sg17
S'2018-01-01 20:55:00'
p265
sg19
g265
sg20
Nsg21
NssI83
(dp266
g2
S'0083'
p267
sg4
g5
sg6
Nsg7
g8
sg9
Nsg10
Nsg11
g12
sg13
I0
sg14
I10
sg15
I2142
sg16
I13
sg17
S'2018-01-01 21:28:00'
p268
sg19
g268
sg20
Nsg21
NssI84
(dp269
g2
S'0084'
p270
sg4
g24
sg6
Nsg7
g8
sg9
Nsg10
Nsg11
g12
sg13
I0
sg14
I13
sg15
I4376
sg16
I12
sg17
S'2018-01-01 22:01:00'
p271
sg19
g271
sg20
Nsg21
NssI85
(dp272
g2
S'0085'
p273
sg4
g24
sg6
Nsg7
g8
sg9
Nsg10
Nsg11
g12
sg13
I0
sg14
I12
sg15
I6850
sg16
I16
sg17
S'2018-01-01 22:32:00'
p274
sg19
g274
sg20
Nsg21
NssI86
(dp275
g2
S'0086'
p276
sg4
g5
sg6
Nsg7
g8
sg9
Nsg10
Nsg11
g12
sg13
I0
sg14
I16
sg15
I7449
sg16
I19
sg17
S'2018-01-01 22:35:00'
p277
sg19
g277
sg20
Nsg21
NssI87
(dp278
g2
S'0087'
p279
sg4
g5
sg6
Nsg7
g8
sg9
Nsg10
Nsg11
g12
sg13
I0
sg14
I19
sg15
I3842
sg16
I14
sg17
S'2018-01-01 22:54:00'
p280
sg19
g280
sg20
Nsg21
NssI88
(dp281
g2
S'0088'
p282
sg4
g24
sg6
Nsg7
g8
sg9
Nsg10
Nsg11
g12
sg13
I0
sg14
I14
sg15
I3281
sg16
I10
sg17
S'2018-01-01 23:08:00'
p283
sg19
g283
sg20
Nsg21
NssI89
(dp284
g2
S'0089'
p285
sg4
g5
sg6
Nsg7
g8
sg9
Nsg10
Nsg11
g12
sg13
I0
sg14
I10
sg15
I9167
sg16
I15
sg17
S'2018-01-01 23:40:00'
p286
sg19
g286
sg20
Nsg21
NssI90
(dp287
g2
S'0090'
p288
sg4
g5
sg6
Nsg7
g8
sg9
Nsg10
Nsg11
g12
sg13
I289
sg14
I15
sg15
I2985
sg16
I14
sg17
S'2018-01-02 05:00:00'
p289
sg19
S'2018-01-02 00:11:00'
p290
sg20
Nsg21
NssI91
(dp291
g2
S'0091'
p292
sg4
g24
sg6
Nsg7
g8
sg9
Nsg10
Nsg11
g12
sg13
I303
sg14
I14
sg15
I4224
sg16
I10
sg17
S'2018-01-02 05:28:00'
p293
sg19
S'2018-01-02 00:25:00'
p294
sg20
Nsg21
NssI92
(dp295
g2
S'0092'
p296
sg4
g5
sg6
Nsg7
g8
sg9
Nsg10
Nsg11
g12
sg13
I324
sg14
I10
sg15
I6737
sg16
I13
sg17
S'2018-01-02 05:56:00'
p297
sg19
S'2018-01-02 00:32:00'
p298
sg20
Nsg21
NssI93
(dp299
g2
S'0093'
p300
sg4
g5
sg6
Nsg7
g8
sg9
Nsg10
Nsg11
g12
sg13
I319
sg14
I13
sg15
I6475
sg16
I15
sg17
S'2018-01-02 05:59:00'
p301
sg19
S'2018-01-02 00:40:00'
p302
sg20
Nsg21
NssI94
(dp303
g2
S'0094'
p304
sg4
g24
sg6
Nsg7
g8
sg9
Nsg10
Nsg11
g12
sg13
I332
sg14
I15
sg15
I6140
sg16
I13
sg17
S'2018-01-02 06:27:00'
p305
sg19
S'2018-01-02 00:55:00'
p306
sg20
Nsg21
NssI95
(dp307
g2
S'0095'
p308
sg4
g5
sg6
Nsg7
g8
sg9
Nsg10
Nsg11
g12
sg13
I347
sg14
I13
sg15
I6468
sg16
I19
sg17
S'2018-01-02 06:55:00'
p309
sg19
S'2018-01-02 01:08:00'
p310
sg20
Nsg21
NssI96
(dp311
g2
S'0096'
p312
sg4
g5
sg6
Nsg7
g8
sg9
Nsg10
Nsg11
g12
sg13
I331
sg14
I19
sg15
I5348
sg16
I13
sg17
S'2018-01-02 06:58:00'
p313
sg19
S'2018-01-02 01:27:00'
p314
sg20
Nsg21
NssI97
(dp315
g2
S'0097'
p316
sg4
g5
sg6
Nsg7
g8
sg9
Nsg10
Nsg11
g12
sg13
I321
sg14
I13
sg15
I2389
sg16
I14
sg17
S'2018-01-02 07:01:00'
p317
sg19
S'2018-01-02 01:40:00'
p318
sg20
Nsg21
NssI98
(dp319
g2
S'0098'
p320
sg4
g24
sg6
Nsg7
g8
sg9
Nsg10
Nsg11
g12
sg13
I320
sg14
I14
sg15
I2102
sg16
I8
sg17
S'2018-01-02 07:29:00'
p321
sg19
S'2018-01-02 02:09:00'
p322
sg20
Nsg21
NssI99
(dp323
g2
S'0099'
p324
sg4
g24
sg6
Nsg7
g8
sg9
Nsg10
Nsg11
g12
sg13
I314
sg14
I8
sg15
I4890
sg16
I20
sg17
S'2018-01-02 07:32:00'
p325
sg19
S'2018-01-02 02:18:00'
p326
sg20
Nsg21
NssI100
(dp327
g2
S'0100'
p328
sg4
g24
sg6
Nsg7
g8
sg9
Nsg10
Nsg11
g12
sg13
I314
sg14
I20
sg15
I5912
sg16
I9
sg17
S'2018-01-02 07:35:00'
p329
sg19
S'2018-01-02 02:21:00'
p330
sg20
Nsg21
NssI101
(dp331
g2
S'0101'
p332
sg4
g24
sg6
Nsg7
g8
sg9
Nsg10
Nsg11
g12
sg13
I308
sg14
I9
sg15
I7097
sg16
I11
sg17
S'2018-01-02 07:38:00'
p333
sg19
S'2018-01-02 02:30:00'
p334
sg20
Nsg21
NssI102
(dp335
g2
S'0102'
p336
sg4
g5
sg6
Nsg7
g8
sg9
Nsg10
Nsg11
g12
sg13
I300
sg14
I11
sg15
I5284
sg16
I17
sg17
S'2018-01-02 08:06:00'
p337
sg19
S'2018-01-02 03:06:00'
p338
sg20
Nsg21
NssI103
(dp339
g2
S'0103'
p340
sg4
g24
sg6
Nsg7
g8
sg9
Nsg10
Nsg11
g12
sg13
I325
sg14
I17
sg15
I3989
sg16
I16
sg17
S'2018-01-02 08:34:00'
p341
sg19
S'2018-01-02 03:09:00'
p342
sg20
Nsg21
NssI104
(dp343
g2
S'0104'
p344
sg4
g24
sg6
Nsg7
g8
sg9
Nsg10
Nsg11
g12
sg13
I312
sg14
I16
sg15
I5957
sg16
I14
sg17
S'2018-01-02 08:37:00'
p345
sg19
S'2018-01-02 03:25:00'
p346
sg20
Nsg21
NssI105
(dp347
g2
S'0105'
p348
sg4
g24
sg6
Nsg7
g8
sg9
Nsg10
Nsg11
g12
sg13
I314
sg14
I14
sg15
I3591
sg16
I10
sg17
S'2018-01-02 08:40:00'
p349
sg19
S'2018-01-02 03:26:00'
p350
sg20
Nsg21
NssI106
(dp351
g2
S'0106'
p352
sg4
g24
sg6
Nsg7
g8
sg9
Nsg10
Nsg11
g12
sg13
I285
sg14
I10
sg15
I5721
sg16
I15
sg17
S'2018-01-02 08:43:00'
p353
sg19
S'2018-01-02 03:58:00'
p354
sg20
Nsg21
NssI107
(dp355
g2
S'0107'
p356
sg4
g24
sg6
Nsg7
g8
sg9
Nsg10
Nsg11
g12
sg13
I257
sg14
I15
sg15
I4572
sg16
I16
sg17
S'2018-01-02 08:46:00'
p357
sg19
S'2018-01-02 04:29:00'
p358
sg20
Nsg21
NssI108
(dp359
g2
S'0108'
p360
sg4
g24
sg6
Nsg7
g8
sg9
Nsg10
Nsg11
g12
sg13
I244
sg14
I16
sg15
I7800
sg16
I12
sg17
S'2018-01-02 08:49:00'
p361
sg19
S'2018-01-02 04:45:00'
p362
sg20
Nsg21
NssI109
(dp363
g2
S'0109'
p364
sg4
g5
sg6
Nsg7
g8
sg9
Nsg10
Nsg11
g12
sg13
I269
sg14
I12
sg15
I7011
sg16
I19
sg17
S'2018-01-02 09:17:00'
p365
sg19
S'2018-01-02 04:48:00'
p366
sg20
Nsg21
NssI110
(dp367
g2
S'0110'
p368
sg4
g5
sg6
Nsg7
g8
sg9
Nsg10
Nsg11
g12
sg13
I253
sg14
I19
sg15
I2393
sg16
I13
sg17
S'2018-01-02 09:20:00'
p369
sg19
S'2018-01-02 05:07:00'
p370
sg20
Nsg21
NssI111
(dp371
g2
S'0111'
p372
sg4
g24
sg6
Nsg7
g8
sg9
Nsg10
Nsg11
g12
sg13
I268
sg14
I13
sg15
I7028
sg16
I18
sg17
S'2018-01-02 09:48:00'
p373
sg19
S'2018-01-02 05:20:00'
p374
sg20
Nsg21
NssI112
(dp375
g2
S'0112'
p376
sg4
g5
sg6
Nsg7
g8
sg9
Nsg10
Nsg11
g12
sg13
I278
sg14
I18
sg15
I7144
sg16
I16
sg17
S'2018-01-02 10:16:00'
p377
sg19
S'2018-01-02 05:38:00'
p378
sg20
Nsg21
NssI113
(dp379
g2
S'0113'
p380
sg4
g24
sg6
Nsg7
g8
sg9
Nsg10
Nsg11
g12
sg13
I290
sg14
I16
sg15
I4852
sg16
I11
sg17
S'2018-01-02 10:44:00'
p381
sg19
S'2018-01-02 05:54:00'
p382
sg20
Nsg21
NssI114
(dp383
g2
S'0114'
p384
sg4
g5
sg6
Nsg7
g8
sg9
Nsg10
Nsg11
g12
sg13
I289
sg14
I11
sg15
I6294
sg16
I19
sg17
S'2018-01-02 11:12:00'
p385
sg19
S'2018-01-02 06:23:00'
p386
sg20
Nsg21
NssI115
(dp387
g2
S'0115'
p388
sg4
g24
sg6
Nsg7
g8
sg9
Nsg10
Nsg11
g12
sg13
I316
sg14
I19
sg15
I5384
sg16
I10
sg17
S'2018-01-02 11:40:00'
p389
sg19
S'2018-01-02 06:24:00'
p390
sg20
Nsg21
NssI116
(dp391
g2
S'0116'
p392
sg4
g24
sg6
Nsg7
g8
sg9
Nsg10
Nsg11
g12
sg13
I317
sg14
I10
sg15
I4929
sg16
I10
sg17
S'2018-01-02 11:43:00'
p393
sg19
S'2018-01-02 06:26:00'
p394
sg20
Nsg21
NssI117
(dp395
g2
S'0117'
p396
sg4
g5
sg6
Nsg7
g8
sg9
Nsg10
Nsg11
g12
sg13
I334
sg14
I10
sg15
I4849
sg16
I15
sg17
S'2018-01-02 12:11:00'
p397
sg19
S'2018-01-02 06:37:00'
p398
sg20
Nsg21
NssI118
(dp399
g2
S'0118'
p400
sg4
g5
sg6
Nsg7
g8
sg9
Nsg10
Nsg11
g12
sg13
I306
sg14
I15
sg15
I5493
sg16
I17
sg17
S'2018-01-02 12:14:00'
p401
sg19
S'2018-01-02 07:08:00'
p402
sg20
Nsg21
NssI119
(dp403
g2
S'0119'
p404
sg4
g5
sg6
Nsg7
g8
sg9
Nsg10
Nsg11
g12
sg13
I292
sg14
I17
sg15
I6054
sg16
I15
sg17
S'2018-01-02 12:17:00'
p405
sg19
S'2018-01-02 07:25:00'
p406
sg20
Nsg21
NssI120
(dp407
g2
S'0120'
p408
sg4
g24
sg6
Nsg7
g8
sg9
Nsg10
Nsg11
g12
sg13
I305
sg14
I15
sg15
I3941
sg16
I15
sg17
S'2018-01-02 12:45:00'
p409
sg19
S'2018-01-02 07:40:00'
p410
sg20
Nsg21
NssI121
(dp411
g2
S'0121'
p412
sg4
g5
sg6
Nsg7
g8
sg9
Nsg10
Nsg11
g12
sg13
I318
sg14
I15
sg15
I4212
sg16
I16
sg17
S'2018-01-02 13:13:00'
p413
sg19
S'2018-01-02 07:55:00'
p414
sg20
Nsg21
NssI122
(dp415
g2
S'0122'
p416
sg4
g5
sg6
Nsg7
g8
sg9
Nsg10
Nsg11
g12
sg13
I305
sg14
I16
sg15
I7074
sg16
I14
sg17
S'2018-01-02 13:16:00'
p417
sg19
S'2018-01-02 08:11:00'
p418
sg20
Nsg21
NssI123
(dp419
g2
S'0123'
p420
sg4
g5
sg6
Nsg7
g8
sg9
Nsg10
Nsg11
g12
sg13
I307
sg14
I14
sg15
I5235
sg16
I14
sg17
S'2018-01-02 13:19:00'
p421
sg19
S'2018-01-02 08:12:00'
p422
sg20
Nsg21
NssI124
(dp423
g2
S'0124'
p424
sg4
g5
sg6
Nsg7
g8
sg9
Nsg10
Nsg11
g12
sg13
I307
sg14
I14
sg15
I3054
sg16
I17
sg17
S'2018-01-02 13:22:00'
p425
sg19
S'2018-01-02 08:15:00'
p426
sg20
Nsg21
NssI125
(dp427
g2
S'0125'
p428
sg4
g24
sg6
Nsg7
g8
sg9
Nsg10
Nsg11
g12
sg13
I318
sg14
I17
sg15
I3424
sg16
I13
sg17
S'2018-01-02 13:50:00'
p429
sg19
S'2018-01-02 08:32:00'
p430
sg20
Nsg21
NssI126
(dp431
g2
S'0126'
p432
sg4
g24
sg6
Nsg7
g8
sg9
Nsg10
Nsg11
g12
sg13
I308
sg14
I13
sg15
I3900
sg16
I15
sg17
S'2018-01-02 13:53:00'
p433
sg19
S'2018-01-02 08:45:00'
p434
sg20
Nsg21
NssI127
(dp435
g2
S'0127'
p436
sg4
g5
sg6
Nsg7
g8
sg9
Nsg10
Nsg11
g12
sg13
I333
sg14
I15
sg15
I4841
sg16
I12
sg17
S'2018-01-02 14:21:00'
p437
sg19
S'2018-01-02 08:48:00'
p438
sg20
Nsg21
NssI128
(dp439
g2
S'0128'
p440
sg4
g24
sg6
Nsg7
g8
sg9
Nsg10
Nsg11
g12
sg13
I332
sg14
I12
sg15
I5329
sg16
I12
sg17
S'2018-01-02 14:49:00'
p441
sg19
S'2018-01-02 09:17:00'
p442
sg20
Nsg21
NssI129
(dp443
g2
S'0129'
p444
sg4
g5
sg6
Nsg7
g8
sg9
Nsg10
Nsg11
g12
sg13
I353
sg14
I12
sg15
I4935
sg16
I20
sg17
S'2018-01-02 15:17:00'
p445
sg19
S'2018-01-02 09:24:00'
p446
sg20
Nsg21
NssI130
(dp447
g2
S'0130'
p448
sg4
g24
sg6
Nsg7
g8
sg9
Nsg10
Nsg11
g12
sg13
I361
sg14
I20
sg15
I4530
sg16
I20
sg17
S'2018-01-02 15:45:00'
p449
sg19
S'2018-01-02 09:44:00'
p450
sg20
Nsg21
NssI131
(dp451
g2
S'0131'
p452
sg4
g24
sg6
Nsg7
g8
sg9
Nsg10
Nsg11
g12
sg13
I344
sg14
I20
sg15
I6573
sg16
I11
sg17
S'2018-01-02 15:48:00'
p453
sg19
S'2018-01-02 10:04:00'
p454
sg20
Nsg21
NssI132
(dp455
g2
S'0132'
p456
sg4
g24
sg6
Nsg7
g8
sg9
Nsg10
Nsg11
g12
sg13
I336
sg14
I11
sg15
I7313
sg16
I12
sg17
S'2018-01-02 15:51:00'
p457
sg19
S'2018-01-02 10:15:00'
p458
sg20
Nsg21
NssI133
(dp459
g2
S'0133'
p460
sg4
g5
sg6
Nsg7
g8
sg9
Nsg10
Nsg11
g12
sg13
I331
sg14
I12
sg15
I4270
sg16
I14
sg17
S'2018-01-02 16:19:00'
p461
sg19
S'2018-01-02 10:48:00'
p462
sg20
Nsg21
NssI134
(dp463
g2
S'0134'
p464
sg4
g5
sg6
Nsg7
g8
sg9
Nsg10
Nsg11
g12
sg13
I304
sg14
I14
sg15
I2546
sg16
I15
sg17
S'2018-01-02 16:22:00'
p465
sg19
S'2018-01-02 11:18:00'
p466
sg20
Nsg21
NssI135
(dp467
g2
S'0135'
p468
sg4
g24
sg6
Nsg7
g8
sg9
Nsg10
Nsg11
g12
sg13
I317
sg14
I15
sg15
I6205
sg16
I14
sg17
S'2018-01-02 16:50:00'
p469
sg19
S'2018-01-02 11:33:00'
p470
sg20
Nsg21
NssI136
(dp471
g2
S'0136'
p472
sg4
g5
sg6
Nsg7
g8
sg9
Nsg10
Nsg11
g12
sg13
I331
sg14
I14
sg15
I8258
sg16
I15
sg17
S'2018-01-02 17:18:00'
p473
sg19
S'2018-01-02 11:47:00'
p474
sg20
Nsg21
NssI137
(dp475
g2
S'0137'
p476
sg4
g24
sg6
Nsg7
g8
sg9
Nsg10
Nsg11
g12
sg13
I344
sg14
I15
sg15
I6135
sg16
I19
sg17
S'2018-01-02 17:46:00'
p477
sg19
S'2018-01-02 12:02:00'
p478
sg20
Nsg21
NssI138
(dp479
g2
S'0138'
p480
sg4
g24
sg6
Nsg7
g8
sg9
Nsg10
Nsg11
g12
sg13
I328
sg14
I19
sg15
I3669
sg16
I13
sg17
S'2018-01-02 17:49:00'
p481
sg19
S'2018-01-02 12:21:00'
p482
sg20
Nsg21
NssI139
(dp483
g2
S'0139'
p484
sg4
g5
sg6
Nsg7
g8
sg9
Nsg10
Nsg11
g12
sg13
I343
sg14
I13
sg15
I4081
sg16
I13
sg17
S'2018-01-02 18:17:00'
p485
sg19
S'2018-01-02 12:34:00'
p486
sg20
Nsg21
NssI140
(dp487
g2
S'0140'
p488
sg4
g5
sg6
Nsg7
g8
sg9
Nsg10
Nsg11
g12
sg13
I341
sg14
I13
sg15
I6797
sg16
I14
sg17
S'2018-01-02 18:20:00'
p489
sg19
S'2018-01-02 12:39:00'
p490
sg20
Nsg21
NssI141
(dp491
g2
S'0141'
p492
sg4
g5
sg6
Nsg7
g8
sg9
Nsg10
Nsg11
g12
sg13
I340
sg14
I14
sg15
I6800
sg16
I13
sg17
S'2018-01-02 18:23:00'
p493
sg19
S'2018-01-02 12:43:00'
p494
sg20
Nsg21
NssI142
(dp495
g2
S'0142'
p496
sg4
g5
sg6
Nsg7
g8
sg9
Nsg10
Nsg11
g12
sg13
I339
sg14
I13
sg15
I3389
sg16
I16
sg17
S'2018-01-02 18:26:00'
p497
sg19
S'2018-01-02 12:47:00'
p498
sg20
Nsg21
NssI143
(dp499
g2
S'0143'
p500
sg4
g5
sg6
Nsg7
g8
sg9
Nsg10
Nsg11
g12
sg13
I340
sg14
I16
sg15
I6086
sg16
I16
sg17
S'2018-01-02 18:29:00'
p501
sg19
S'2018-01-02 12:49:00'
p502
sg20
Nsg21
NssI144
(dp503
g2
S'0144'
p504
sg4
g24
sg6
Nsg7
g8
sg9
Nsg10
Nsg11
g12
sg13
I352
sg14
I16
sg15
I3770
sg16
I14
sg17
S'2018-01-02 18:57:00'
p505
sg19
S'2018-01-02 13:05:00'
p506
sg20
Nsg21
NssI145
(dp507
g2
S'0145'
p508
sg4
g24
sg6
Nsg7
g8
sg9
Nsg10
Nsg11
g12
sg13
I354
sg14
I14
sg15
I3476
sg16
I18
sg17
S'2018-01-02 19:00:00'
p509
sg19
S'2018-01-02 13:06:00'
p510
sg20
Nsg21
NssI146
(dp511
g2
S'0146'
p512
sg4
g5
sg6
Nsg7
g8
sg9
Nsg10
Nsg11
g12
sg13
I364
sg14
I18
sg15
I5431
sg16
I10
sg17
S'2018-01-02 19:28:00'
p513
sg19
S'2018-01-02 13:24:00'
p514
sg20
Nsg21
NssI147
(dp515
g2
S'0147'
p516
sg4
g24
sg6
Nsg7
g8
sg9
Nsg10
Nsg11
g12
sg13
I382
sg14
I10
sg15
I7180
sg16
I15
sg17
S'2018-01-02 19:56:00'
p517
sg19
S'2018-01-02 13:34:00'
p518
sg20
Nsg21
NssI148
(dp519
g2
S'0148'
p520
sg4
g24
sg6
Nsg7
g8
sg9
Nsg10
Nsg11
g12
sg13
I354
sg14
I15
sg15
I5654
sg16
I14
sg17
S'2018-01-02 19:59:00'
p521
sg19
S'2018-01-02 14:05:00'
p522
sg20
Nsg21
NssI149
(dp523
g2
S'0149'
p524
sg4
g24
sg6
Nsg7
g8
sg9
Nsg10
Nsg11
g12
sg13
I355
sg14
I14
sg15
I5743
sg16
I9
sg17
S'2018-01-02 20:02:00'
p525
sg19
S'2018-01-02 14:07:00'
p526
sg20
Nsg21
NssI150
(dp527
g2
S'0150'
p528
sg4
g5
sg6
Nsg7
g8
sg9
Nsg10
Nsg11
g12
sg13
I350
sg14
I9
sg15
I3640
sg16
I19
sg17
S'2018-01-02 20:30:00'
p529
sg19
S'2018-01-02 14:40:00'
p530
sg20
Nsg21
NssI151
(dp531
g2
S'0151'
p532
sg4
g5
sg6
Nsg7
g8
sg9
Nsg10
Nsg11
g12
sg13
I334
sg14
I19
sg15
I5108
sg16
I10
sg17
S'2018-01-02 20:33:00'
p533
sg19
S'2018-01-02 14:59:00'
p534
sg20
Nsg21
NssI152
(dp535
g2
S'0152'
p536
sg4
g5
sg6
Nsg7
g8
sg9
Nsg10
Nsg11
g12
sg13
I335
sg14
I10
sg15
I5548
sg16
I12
sg17
S'2018-01-02 20:36:00'
p537
sg19
S'2018-01-02 15:01:00'
p538
sg20
Nsg21
NssI153
(dp539
g2
S'0153'
p540
sg4
g24
sg6
Nsg7
g8
sg9
Nsg10
Nsg11
g12
sg13
I329
sg14
I12
sg15
I7042
sg16
I15
sg17
S'2018-01-02 21:04:00'
p541
sg19
S'2018-01-02 15:35:00'
p542
sg20
Nsg21
NssI154
(dp543
g2
S'0154'
p544
sg4
g5
sg6
Nsg7
g8
sg9
Nsg10
Nsg11
g12
sg13
I353
sg14
I15
sg15
I3520
sg16
I13
sg17
S'2018-01-02 21:32:00'
p545
sg19
S'2018-01-02 15:39:00'
p546
sg20
Nsg21
NssI155
(dp547
g2
S'0155'
p548
sg4
g24
sg6
Nsg7
g8
sg9
Nsg10
Nsg11
g12
sg13
I378
sg14
I13
sg15
I6977
sg16
I17
sg17
S'2018-01-02 22:00:00'
p549
sg19
S'2018-01-02 15:42:00'
p550
sg20
Nsg21
NssI156
(dp551
g2
S'0156'
p552
sg4
g5
sg6
Nsg7
g8
sg9
Nsg10
Nsg11
g12
sg13
I389
sg14
I17
sg15
I4931
sg16
I16
sg17
S'2018-01-02 22:28:00'
p553
sg19
S'2018-01-02 15:59:00'
p554
sg20
Nsg21
NssI157
(dp555
g2
S'0157'
p556
sg4
g24
sg6
Nsg7
g8
sg9
Nsg10
Nsg11
g12
sg13
I401
sg14
I16
sg15
I4865
sg16
I15
sg17
S'2018-01-02 22:56:00'
p557
sg19
S'2018-01-02 16:15:00'
p558
sg20
Nsg21
NssI158
(dp559
g2
S'0158'
p560
sg4
g5
sg6
Nsg7
g8
sg9
Nsg10
Nsg11
g12
sg13
I414
sg14
I15
sg15
I3177
sg16
I13
sg17
S'2018-01-02 23:24:00'
p561
sg19
S'2018-01-02 16:30:00'
p562
sg20
Nsg21
NssI159
(dp563
g2
S'0159'
p564
sg4
g24
sg6
Nsg7
g8
sg9
Nsg10
Nsg11
g12
sg13
I439
sg14
I13
sg15
I4844
sg16
I13
sg17
S'2018-01-02 23:52:00'
p565
sg19
S'2018-01-02 16:33:00'
p566
sg20
Nsg21
NssI160
(dp567
g2
S'0160'
p568
sg4
g5
sg6
Nsg7
g8
sg9
Nsg10
Nsg11
g12
sg13
I462
sg14
I13
sg15
I3413
sg16
I12
sg17
S'2018-01-03 00:20:00'
p569
sg19
S'2018-01-02 16:38:00'
p570
sg20
Nsg21
NssI161
(dp571
g2
S'0161'
p572
sg4
g24
sg6
Nsg7
g8
sg9
Nsg10
Nsg11
g12
sg13
I484
sg14
I12
sg15
I4641
sg16
I13
sg17
S'2018-01-03 00:48:00'
p573
sg19
S'2018-01-02 16:44:00'
p574
sg20
Nsg21
NssI162
(dp575
g2
S'0162'
p576
sg4
g5
sg6
Nsg7
g8
sg9
Nsg10
Nsg11
g12
sg13
I481
sg14
I13
sg15
I6106
sg16
I9
sg17
S'2018-01-03 01:16:00'
p577
sg19
S'2018-01-02 17:15:00'
p578
sg20
Nsg21
NssI163
(dp579
g2
S'0163'
p580
sg4
g24
sg6
Nsg7
g8
sg9
Nsg10
Nsg11
g12
sg13
I500
sg14
I9
sg15
I6266
sg16
I11
sg17
S'2018-01-03 01:44:00'
p581
sg19
S'2018-01-02 17:24:00'
p582
sg20
Nsg21
NssI164
(dp583
g2
S'0164'
p584
sg4
g24
sg6
Nsg7
g8
sg9
Nsg10
Nsg11
g12
sg13
I467
sg14
I11
sg15
I4766
sg16
I16
sg17
S'2018-01-03 01:47:00'
p585
sg19
S'2018-01-02 18:00:00'
p586
sg20
Nsg21
NssI165
(dp587
g2
S'0165'
p588
sg4
g24
sg6
Nsg7
g8
sg9
Nsg10
Nsg11
g12
sg13
I466
sg14
I16
sg15
I3561
sg16
I16
sg17
S'2018-01-03 01:50:00'
p589
sg19
S'2018-01-02 18:04:00'
p590
sg20
Nsg21
NssI166
(dp591
g2
S'0166'
p592
sg4
g5
sg6
Nsg7
g8
sg9
Nsg10
Nsg11
g12
sg13
I478
sg14
I16
sg15
I4723
sg16
I14
sg17
S'2018-01-03 02:18:00'
p593
sg19
S'2018-01-02 18:20:00'
p594
sg20
Nsg21
NssI167
(dp595
g2
S'0167'
p596
sg4
g24
sg6
Nsg7
g8
sg9
Nsg10
Nsg11
g12
sg13
I492
sg14
I14
sg15
I6314
sg16
I16
sg17
S'2018-01-03 02:46:00'
p597
sg19
S'2018-01-02 18:34:00'
p598
sg20
Nsg21
NssI168
(dp599
g2
S'0168'
p600
sg4
g24
sg6
Nsg7
g8
sg9
Nsg10
Nsg11
g12
sg13
I494
sg14
I16
sg15
I3238
sg16
I15
sg17
S'2018-01-03 02:49:00'
p601
sg19
S'2018-01-02 18:35:00'
p602
sg20
Nsg21
NssI169
(dp603
g2
S'0169'
p604
sg4
g5
sg6
Nsg7
g8
sg9
Nsg10
Nsg11
g12
sg13
I507
sg14
I15
sg15
I5763
sg16
I18
sg17
S'2018-01-03 03:17:00'
p605
sg19
S'2018-01-02 18:50:00'
p606
sg20
Nsg21
NssI170
(dp607
g2
S'0170'
p608
sg4
g5
sg6
Nsg7
g8
sg9
Nsg10
Nsg11
g12
sg13
I492
sg14
I18
sg15
I3644
sg16
I11
sg17
S'2018-01-03 03:20:00'
p609
sg19
S'2018-01-02 19:08:00'
p610
sg20
Nsg21
NssI171
(dp611
g2
S'0171'
p612
sg4
g24
sg6
Nsg7
g8
sg9
Nsg10
Nsg11
g12
sg13
I509
sg14
I11
sg15
I5974
sg16
I18
sg17
S'2018-01-03 03:48:00'
p613
sg19
S'2018-01-02 19:19:00'
p614
sg20
Nsg21
NssI172
(dp615
g2
S'0172'
p616
sg4
g5
sg6
Nsg7
g8
sg9
Nsg10
Nsg11
g12
sg13
I535
sg14
I18
sg15
I4304
sg16
I11
sg17
S'2018-01-03 04:16:00'
p617
sg19
S'2018-01-02 19:21:00'
p618
sg20
Nsg21
NssI173
(dp619
g2
S'0173'
p620
sg4
g24
sg6
Nsg7
g8
sg9
Nsg10
Nsg11
g12
sg13
I552
sg14
I11
sg15
I6645
sg16
I16
sg17
S'2018-01-03 04:44:00'
p621
sg19
S'2018-01-02 19:32:00'
p622
sg20
Nsg21
NssI174
(dp623
g2
S'0174'
p624
sg4
g24
sg6
Nsg7
g8
sg9
Nsg10
Nsg11
g12
sg13
I551
sg14
I16
sg15
I3419
sg16
I14
sg17
S'2018-01-03 04:47:00'
p625
sg19
S'2018-01-02 19:36:00'
p626
sg20
Nsg21
NssI175
(dp627
g2
S'0175'
p628
sg4
g5
sg6
Nsg7
g8
sg9
Nsg10
Nsg11
g12
sg13
I565
sg14
I14
sg15
I5548
sg16
I16
sg17
S'2018-01-03 05:15:00'
p629
sg19
S'2018-01-02 19:50:00'
p630
sg20
Nsg21
NssI176
(dp631
g2
S'0176'
p632
sg4
g5
sg6
Nsg7
g8
sg9
Nsg10
Nsg11
g12
sg13
I552
sg14
I16
sg15
I6318
sg16
I16
sg17
S'2018-01-03 05:18:00'
p633
sg19
S'2018-01-02 20:06:00'
p634
sg20
Nsg21
NssI177
(dp635
g2
S'0177'
p636
sg4
g24
sg6
Nsg7
g8
sg9
Nsg10
Nsg11
g12
sg13
I564
sg14
I16
sg15
I3246
sg16
I11
sg17
S'2018-01-03 05:46:00'
p637
sg19
S'2018-01-02 20:22:00'
p638
sg20
Nsg21
NssI178
(dp639
g2
S'0178'
p640
sg4
g5
sg6
Nsg7
g8
sg9
Nsg10
Nsg11
g12
sg13
I588
sg14
I11
sg15
I3606
sg16
I17
sg17
S'2018-01-03 06:14:00'
p641
sg19
S'2018-01-02 20:26:00'
p642
sg20
Nsg21
NssI179
(dp643
g2
S'0179'
p644
sg4
g24
sg6
Nsg7
g8
sg9
Nsg10
Nsg11
g12
sg13
I599
sg14
I17
sg15
I4666
sg16
I16
sg17
S'2018-01-03 06:42:00'
p645
sg19
S'2018-01-02 20:43:00'
p646
sg20
Nsg21
NssI180
(dp647
g2
S'0180'
p648
sg4
g24
sg6
Nsg7
g8
sg9
Nsg10
Nsg11
g12
sg13
I586
sg14
I16
sg15
I5340
sg16
I15
sg17
S'2018-01-03 06:45:00'
p649
sg19
S'2018-01-02 20:59:00'
p650
sg20
Nsg21
NssI181
(dp651
g2
S'0181'
p652
sg4
g24
sg6
Nsg7
g8
sg9
Nsg10
Nsg11
g12
sg13
I574
sg14
I15
sg15
I7257
sg16
I20
sg17
S'2018-01-03 06:48:00'
p653
sg19
S'2018-01-02 21:14:00'
p654
sg20
Nsg21
NssI182
(dp655
g2
S'0182'
p656
sg4
g5
sg6
Nsg7
g8
sg9
Nsg10
Nsg11
g12
sg13
I582
sg14
I20
sg15
I4386
sg16
I17
sg17
S'2018-01-03 07:16:00'
p657
sg19
S'2018-01-02 21:34:00'
p658
sg20
Nsg21
NssI183
(dp659
g2
S'0183'
p660
sg4
g24
sg6
Nsg7
g8
sg9
Nsg10
Nsg11
g12
sg13
I593
sg14
I17
sg15
I5783
sg16
I9
sg17
S'2018-01-03 07:44:00'
p661
sg19
S'2018-01-02 21:51:00'
p662
sg20
Nsg21
NssI184
(dp663
g2
S'0184'
p664
sg4
g24
sg6
Nsg7
g8
sg9
Nsg10
Nsg11
g12
sg13
I591
sg14
I9
sg15
I4114
sg16
I9
sg17
S'2018-01-03 07:47:00'
p665
sg19
S'2018-01-02 21:56:00'
p666
sg20
Nsg21
NssI185
(dp667
g2
S'0185'
p668
sg4
g5
sg6
Nsg7
g8
sg9
Nsg10
Nsg11
g12
sg13
I606
sg14
I9
sg15
I6992
sg16
I19
sg17
S'2018-01-03 08:15:00'
p669
sg19
S'2018-01-02 22:09:00'
p670
sg20
Nsg21
NssI186
(dp671
g2
S'0186'
p672
sg4
g24
sg6
Nsg7
g8
sg9
Nsg10
Nsg11
g12
sg13
I631
sg14
I19
sg15
I4478
sg16
I12
sg17
S'2018-01-03 08:43:00'
p673
sg19
S'2018-01-02 22:12:00'
p674
sg20
Nsg21
NssI187
(dp675
g2
S'0187'
p676
sg4
g24
sg6
Nsg7
g8
sg9
Nsg10
Nsg11
g12
sg13
I622
sg14
I12
sg15
I4740
sg16
I15
sg17
S'2018-01-03 08:46:00'
p677
sg19
S'2018-01-02 22:24:00'
p678
sg20
Nsg21
NssI188
(dp679
g2
S'0188'
p680
sg4
g24
sg6
Nsg7
g8
sg9
Nsg10
Nsg11
g12
sg13
I596
sg14
I15
sg15
I2744
sg16
I13
sg17
S'2018-01-03 08:49:00'
p681
sg19
S'2018-01-02 22:53:00'
p682
sg20
Nsg21
NssI189
(dp683
g2
S'0189'
p684
sg4
g5
sg6
Nsg7
g8
sg9
Nsg10
Nsg11
g12
sg13
I611
sg14
I13
sg15
I6864
sg16
I13
sg17
S'2018-01-03 09:17:00'
p685
sg19
S'2018-01-02 23:06:00'
p686
sg20
Nsg21
NssI190
(dp687
g2
S'0190'
p688
sg4
g24
sg6
Nsg7
g8
sg9
Nsg10
Nsg11
g12
sg13
I634
sg14
I13
sg15
I5011
sg16
I12
sg17
S'2018-01-03 09:45:00'
p689
sg19
S'2018-01-02 23:11:00'
p690
sg20
Nsg21
NssI191
(dp691
g2
S'0191'
p692
sg4
g24
sg6
Nsg7
g8
sg9
Nsg10
Nsg11
g12
sg13
I606
sg14
I12
sg15
I3747
sg16
I15
sg17
S'2018-01-03 09:48:00'
p693
sg19
S'2018-01-02 23:42:00'
p694
sg20
Nsg21
NssI192
(dp695
g2
S'0192'
p696
sg4
g24
sg6
Nsg7
g8
sg9
Nsg10
Nsg11
g12
sg13
I605
sg14
I15
sg15
I6246
sg16
I13
sg17
S'2018-01-03 09:51:00'
p697
sg19
S'2018-01-02 23:46:00'
p698
sg20
Nsg21
NssI193
(dp699
g2
S'0193'
p700
sg4
g24
sg6
Nsg7
g8
sg9
Nsg10
Nsg11
g12
sg13
I595
sg14
I13
sg15
I2080
sg16
I14
sg17
S'2018-01-03 09:54:00'
p701
sg19
S'2018-01-02 23:59:00'
p702
sg20
Nsg21
NssI194
(dp703
g2
S'0194'
p704
sg4
g5
sg6
Nsg7
g8
sg9
Nsg10
Nsg11
g12
sg13
I619
sg14
I14
sg15
I7059
sg16
I14
sg17
S'2018-01-03 10:22:00'
p705
sg19
S'2018-01-03 00:03:00'
p706
sg20
Nsg21
NssI195
(dp707
g2
S'0195'
p708
sg4
g24
sg6
Nsg7
g8
sg9
Nsg10
Nsg11
g12
sg13
I644
sg14
I14
sg15
I5823
sg16
I14
sg17
S'2018-01-03 10:50:00'
p709
sg19
S'2018-01-03 00:06:00'
p710
sg20
Nsg21
NssI196
(dp711
g2
S'0196'
p712
sg4
g24
sg6
Nsg7
g8
sg9
Nsg10
Nsg11
g12
sg13
I644
sg14
I14
sg15
I7364
sg16
I11
sg17
S'2018-01-03 10:53:00'
p713
sg19
S'2018-01-03 00:09:00'
p714
sg20
Nsg21
NssI197
(dp715
g2
S'0197'
p716
sg4
g24
sg6
Nsg7
g8
sg9
Nsg10
Nsg11
g12
sg13
I641
sg14
I11
sg15
I6634
sg16
I19
sg17
S'2018-01-03 10:56:00'
p717
sg19
S'2018-01-03 00:15:00'
p718
sg20
Nsg21
NssI198
(dp719
g2
S'0198'
p720
sg4
g24
sg6
Nsg7
g8
sg9
Nsg10
Nsg11
g12
sg13
I625
sg14
I19
sg15
I5852
sg16
I13
sg17
S'2018-01-03 10:59:00'
p721
sg19
S'2018-01-03 00:34:00'
p722
sg20
Nsg21
NssI199
(dp723
g2
S'0199'
p724
sg4
g24
sg6
Nsg7
g8
sg9
Nsg10
Nsg11
g12
sg13
I615
sg14
I13
sg15
I6626
sg16
I14
sg17
S'2018-01-03 11:02:00'
p725
sg19
S'2018-01-03 00:47:00'
p726
sg20
Nsg21
NssI200
(dp727
g2
S'0200'
p728
sg4
g5
sg6
Nsg7
g8
sg9
Nsg10
Nsg11
g12
sg13
I639
sg14
I14
sg15
I5542
sg16
I14
sg17
S'2018-01-03 11:30:00'
p729
sg19
S'2018-01-03 00:51:00'
p730
sg20
Nsg21
NssI201
(dp731
g2
S'0201'
p732
sg4
g24
sg6
Nsg7
g8
sg9
Nsg10
Nsg11
g12
sg13
I653
sg14
I14
sg15
I2431
sg16
I14
sg17
S'2018-01-03 11:58:00'
p733
sg19
S'2018-01-03 01:05:00'
p734
sg20
Nsg21
NssI202
(dp735
g2
S'0202'
p736
sg4
g5
sg6
Nsg7
g8
sg9
Nsg10
Nsg11
g12
sg13
I667
sg14
I14
sg15
I5192
sg16
I15
sg17
S'2018-01-03 12:26:00'
p737
sg19
S'2018-01-03 01:19:00'
p738
sg20
Nsg21
NssI203
(dp739
g2
S'0203'
p740
sg4
g5
sg6
Nsg7
g8
sg9
Nsg10
Nsg11
g12
sg13
I655
sg14
I15
sg15
I4908
sg16
I11
sg17
S'2018-01-03 12:29:00'
p741
sg19
S'2018-01-03 01:34:00'
p742
sg20
Nsg21
NssI204
(dp743
g2
S'0204'
p744
sg4
g5
sg6
Nsg7
g8
sg9
Nsg10
Nsg11
g12
sg13
I628
sg14
I11
sg15
I6818
sg16
I21
sg17
S'2018-01-03 12:32:00'
p745
sg19
S'2018-01-03 02:04:00'
p746
sg20
Nsg21
NssI205
(dp747
g2
S'0205'
p748
sg4
g5
sg6
Nsg7
g8
sg9
Nsg10
Nsg11
g12
sg13
I610
sg14
I21
sg15
I5785
sg16
I14
sg17
S'2018-01-03 12:35:00'
p749
sg19
S'2018-01-03 02:25:00'
p750
sg20
Nsg21
NssI206
(dp751
g2
S'0206'
p752
sg4
g24
sg6
Nsg7
g8
sg9
Nsg10
Nsg11
g12
sg13
I624
sg14
I14
sg15
I4564
sg16
I17
sg17
S'2018-01-03 13:03:00'
p753
sg19
S'2018-01-03 02:39:00'
p754
sg20
Nsg21
NssI207
(dp755
g2
S'0207'
p756
sg4
g24
sg6
Nsg7
g8
sg9
Nsg10
Nsg11
g12
sg13
I610
sg14
I17
sg15
I5586
sg16
I12
sg17
S'2018-01-03 13:06:00'
p757
sg19
S'2018-01-03 02:56:00'
p758
sg20
Nsg21
NssI208
(dp759
g2
S'0208'
p760
sg4
g5
sg6
Nsg7
g8
sg9
Nsg10
Nsg11
g12
sg13
I626
sg14
I12
sg15
I4148
sg16
I15
sg17
S'2018-01-03 13:34:00'
p761
sg19
S'2018-01-03 03:08:00'
p762
sg20
Nsg21
NssI209
(dp763
g2
S'0209'
p764
sg4
g24
sg6
Nsg7
g8
sg9
Nsg10
Nsg11
g12
sg13
I625
sg14
I15
sg15
I7705
sg16
I16
sg17
S'2018-01-03 14:02:00'
p765
sg19
S'2018-01-03 03:37:00'
p766
sg20
Nsg21
NssI210
(dp767
g2
S'0210'
p768
sg4
g24
sg6
Nsg7
g8
sg9
Nsg10
Nsg11
g12
sg13
I612
sg14
I16
sg15
I8169
sg16
I20
sg17
S'2018-01-03 14:05:00'
p769
sg19
S'2018-01-03 03:53:00'
p770
sg20
Nsg21
NssI211
(dp771
g2
S'0211'
p772
sg4
g24
sg6
Nsg7
g8
sg9
Nsg10
Nsg11
g12
sg13
I595
sg14
I20
sg15
I4967
sg16
I12
sg17
S'2018-01-03 14:08:00'
p773
sg19
S'2018-01-03 04:13:00'
p774
sg20
Nsg21
NssI212
(dp775
g2
S'0212'
p776
sg4
g24
sg6
Nsg7
g8
sg9
Nsg10
Nsg11
g12
sg13
I586
sg14
I12
sg15
I5742
sg16
I11
sg17
S'2018-01-03 14:11:00'
p777
sg19
S'2018-01-03 04:25:00'
p778
sg20
Nsg21
NssI213
(dp779
g2
S'0213'
p780
sg4
g24
sg6
Nsg7
g8
sg9
Nsg10
Nsg11
g12
sg13
I581
sg14
I11
sg15
I3266
sg16
I16
sg17
S'2018-01-03 14:14:00'
p781
sg19
S'2018-01-03 04:33:00'
p782
sg20
Nsg21
NssI214
(dp783
g2
S'0214'
p784
sg4
g5
sg6
Nsg7
g8
sg9
Nsg10
Nsg11
g12
sg13
I580
sg14
I16
sg15
I4726
sg16
I15
sg17
S'2018-01-03 14:42:00'
p785
sg19
S'2018-01-03 05:02:00'
p786
sg20
Nsg21
NssI215
(dp787
g2
S'0215'
p788
sg4
g5
sg6
Nsg7
g8
sg9
Nsg10
Nsg11
g12
sg13
I568
sg14
I15
sg15
I3874
sg16
I10
sg17
S'2018-01-03 14:45:00'
p789
sg19
S'2018-01-03 05:17:00'
p790
sg20
Nsg21
NssI216
(dp791
g2
S'0216'
p792
sg4
g24
sg6
Nsg7
g8
sg9
Nsg10
Nsg11
g12
sg13
I565
sg14
I10
sg15
I1545
sg16
I14
sg17
S'2018-01-03 15:13:00'
p793
sg19
S'2018-01-03 05:48:00'
p794
sg20
Nsg21
NssI217
(dp795
g2
S'0217'
p796
sg4
g24
sg6
Nsg7
g8
sg9
Nsg10
Nsg11
g12
sg13
I536
sg14
I14
sg15
I5735
sg16
I15
sg17
S'2018-01-03 15:16:00'
p797
sg19
S'2018-01-03 06:20:00'
p798
sg20
Nsg21
NssI218
(dp799
g2
S'0218'
p800
sg4
g24
sg6
Nsg7
g8
sg9
Nsg10
Nsg11
g12
sg13
I524
sg14
I15
sg15
I3046
sg16
I14
sg17
S'2018-01-03 15:19:00'
p801
sg19
S'2018-01-03 06:35:00'
p802
sg20
Nsg21
NssI219
(dp803
g2
S'0219'
p804
sg4
g24
sg6
Nsg7
g8
sg9
Nsg10
Nsg11
g12
sg13
I525
sg14
I14
sg15
I6298
sg16
I20
sg17
S'2018-01-03 15:22:00'
p805
sg19
S'2018-01-03 06:37:00'
p806
sg20
Nsg21
NssI220
(dp807
g2
S'0220'
p808
sg4
g5
sg6
Nsg7
g8
sg9
Nsg10
Nsg11
g12
sg13
I533
sg14
I20
sg15
I4664
sg16
I14
sg17
S'2018-01-03 15:50:00'
p809
sg19
S'2018-01-03 06:57:00'
p810
sg20
Nsg21
NssI221
(dp811
g2
S'0221'
p812
sg4
g24
sg6
Nsg7
g8
sg9
Nsg10
Nsg11
g12
sg13
I547
sg14
I14
sg15
I6918
sg16
I16
sg17
S'2018-01-03 16:18:00'
p813
sg19
S'2018-01-03 07:11:00'
p814
sg20
Nsg21
NssI222
(dp815
g2
S'0222'
p816
sg4
g5
sg6
Nsg7
g8
sg9
Nsg10
Nsg11
g12
sg13
I574
sg14
I16
sg15
I8601
sg16
I15
sg17
S'2018-01-03 16:46:00'
p817
sg19
S'2018-01-03 07:12:00'
p818
sg20
Nsg21
NssI223
(dp819
g2
S'0223'
p820
sg4
g24
sg6
Nsg7
g8
sg9
Nsg10
Nsg11
g12
sg13
I587
sg14
I15
sg15
I5477
sg16
I17
sg17
S'2018-01-03 17:14:00'
p821
sg19
S'2018-01-03 07:27:00'
p822
sg20
Nsg21
NssI224
(dp823
g2
S'0224'
p824
sg4
g5
sg6
Nsg7
g8
sg9
Nsg10
Nsg11
g12
sg13
I598
sg14
I17
sg15
I4781
sg16
I15
sg17
S'2018-01-03 17:42:00'
p825
sg19
S'2018-01-03 07:44:00'
p826
sg20
Nsg21
NssI225
(dp827
g2
S'0225'
p828
sg4
g24
sg6
Nsg7
g8
sg9
Nsg10
Nsg11
g12
sg13
I611
sg14
I15
sg15
I2883
sg16
I12
sg17
S'2018-01-03 18:10:00'
p829
sg19
S'2018-01-03 07:59:00'
p830
sg20
Nsg21
NssI226
(dp831
g2
S'0226'
p832
sg4
g24
sg6
Nsg7
g8
sg9
Nsg10
Nsg11
g12
sg13
I585
sg14
I12
sg15
I1989
sg16
I21
sg17
S'2018-01-03 18:13:00'
p833
sg19
S'2018-01-03 08:28:00'
p834
sg20
Nsg21
NssI227
(dp835
g2
S'0227'
p836
sg4
g24
sg6
Nsg7
g8
sg9
Nsg10
Nsg11
g12
sg13
I567
sg14
I21
sg15
I6105
sg16
I16
sg17
S'2018-01-03 18:16:00'
p837
sg19
S'2018-01-03 08:49:00'
p838
sg20
Nsg21
NssI228
(dp839
g2
S'0228'
p840
sg4
g24
sg6
Nsg7
g8
sg9
Nsg10
Nsg11
g12
sg13
I554
sg14
I16
sg15
I7364
sg16
I13
sg17
S'2018-01-03 18:19:00'
p841
sg19
S'2018-01-03 09:05:00'
p842
sg20
Nsg21
NssI229
(dp843
g2
S'0229'
p844
sg4
g24
sg6
Nsg7
g8
sg9
Nsg10
Nsg11
g12
sg13
I555
sg14
I13
sg15
I4856
sg16
I13
sg17
S'2018-01-03 18:22:00'
p845
sg19
S'2018-01-03 09:07:00'
p846
sg20
Nsg21
NssI230
(dp847
g2
S'0230'
p848
sg4
g24
sg6
Nsg7
g8
sg9
Nsg10
Nsg11
g12
sg13
I528
sg14
I13
sg15
I4344
sg16
I11
sg17
S'2018-01-03 18:25:00'
p849
sg19
S'2018-01-03 09:37:00'
p850
sg20
Nsg21
NssI231
(dp851
g2
S'0231'
p852
sg4
g24
sg6
Nsg7
g8
sg9
Nsg10
Nsg11
g12
sg13
I499
sg14
I11
sg15
I4413
sg16
I14
sg17
S'2018-01-03 18:28:00'
p853
sg19
S'2018-01-03 10:09:00'
p854
sg20
Nsg21
NssI232
(dp855
g2
S'0232'
p856
sg4
g24
sg6
Nsg7
g8
sg9
Nsg10
Nsg11
g12
sg13
I496
sg14
I14
sg15
I4524
sg16
I14
sg17
S'2018-01-03 18:31:00'
p857
sg19
S'2018-01-03 10:15:00'
p858
sg20
Nsg21
NssI233
(dp859
g2
S'0233'
p860
sg4
g24
sg6
Nsg7
g8
sg9
Nsg10
Nsg11
g12
sg13
I496
sg14
I14
sg15
I3106
sg16
I17
sg17
S'2018-01-03 18:34:00'
p861
sg19
S'2018-01-03 10:18:00'
p862
sg20
Nsg21
NssI234
(dp863
g2
S'0234'
p864
sg4
g5
sg6
Nsg7
g8
sg9
Nsg10
Nsg11
g12
sg13
I507
sg14
I17
sg15
I4167
sg16
I12
sg17
S'2018-01-03 19:02:00'
p865
sg19
S'2018-01-03 10:35:00'
p866
sg20
Nsg21
NssI235
(dp867
g2
S'0235'
p868
sg4
g24
sg6
Nsg7
g8
sg9
Nsg10
Nsg11
g12
sg13
I533
sg14
I12
sg15
I5111
sg16
I10
sg17
S'2018-01-03 19:30:00'
p869
sg19
S'2018-01-03 10:37:00'
p870
sg20
Nsg21
NssI236
(dp871
g2
S'0236'
p872
sg4
g5
sg6
Nsg7
g8
sg9
Nsg10
Nsg11
g12
sg13
I527
sg14
I10
sg15
I5872
sg16
I12
sg17
S'2018-01-03 19:58:00'
p873
sg19
S'2018-01-03 11:11:00'
p874
sg20
Nsg21
NssI237
(dp875
g2
S'0237'
p876
sg4
g5
sg6
Nsg7
g8
sg9
Nsg10
Nsg11
g12
sg13
I521
sg14
I12
sg15
I4214
sg16
I18
sg17
S'2018-01-03 20:01:00'
p877
sg19
S'2018-01-03 11:20:00'
p878
sg20
Nsg21
NssI238
(dp879
g2
S'0238'
p880
sg4
g24
sg6
Nsg7
g8
sg9
Nsg10
Nsg11
g12
sg13
I531
sg14
I18
sg15
I4021
sg16
I8
sg17
S'2018-01-03 20:29:00'
p881
sg19
S'2018-01-03 11:38:00'
p882
sg20
Nsg21
NssI239
(dp883
g2
S'0239'
p884
sg4
g5
sg6
Nsg7
g8
sg9
Nsg10
Nsg11
g12
sg13
I554
sg14
I8
sg15
I6514
sg16
I11
sg17
S'2018-01-03 20:57:00'
p885
sg19
S'2018-01-03 11:43:00'
p886
sg20
Nsg21
NssI240
(dp887
g2
S'0240'
p888
sg4
g5
sg6
Nsg7
g8
sg9
Nsg10
Nsg11
g12
sg13
I545
sg14
I11
sg15
I4961
sg16
I14
sg17
S'2018-01-03 21:00:00'
p889
sg19
S'2018-01-03 11:55:00'
p890
sg20
Nsg21
NssI241
(dp891
g2
S'0241'
p892
sg4
g24
sg6
Nsg7
g8
sg9
Nsg10
Nsg11
g12
sg13
I567
sg14
I14
sg15
I4055
sg16
I13
sg17
S'2018-01-03 21:28:00'
p893
sg19
S'2018-01-03 12:01:00'
p894
sg20
Nsg21
NssI242
(dp895
g2
S'0242'
p896
sg4
g24
sg6
Nsg7
g8
sg9
Nsg10
Nsg11
g12
sg13
I541
sg14
I13
sg15
I5739
sg16
I14
sg17
S'2018-01-03 21:31:00'
p897
sg19
S'2018-01-03 12:30:00'
p898
sg20
Nsg21
NssI243
(dp899
g2
S'0243'
p900
sg4
g24
sg6
Nsg7
g8
sg9
Nsg10
Nsg11
g12
sg13
I515
sg14
I14
sg15
I6740
sg16
I13
sg17
S'2018-01-03 21:34:00'
p901
sg19
S'2018-01-03 12:59:00'
p902
sg20
Nsg21
NssI244
(dp903
g2
S'0244'
p904
sg4
g5
sg6
Nsg7
g8
sg9
Nsg10
Nsg11
g12
sg13
I514
sg14
I13
sg15
I4117
sg16
I15
sg17
S'2018-01-03 22:02:00'
p905
sg19
S'2018-01-03 13:28:00'
p906
sg20
Nsg21
NssI245
(dp907
g2
S'0245'
p908
sg4
g5
sg6
Nsg7
g8
sg9
Nsg10
Nsg11
g12
sg13
I502
sg14
I15
sg15
I6948
sg16
I12
sg17
S'2018-01-03 22:05:00'
p909
sg19
S'2018-01-03 13:43:00'
p910
sg20
Nsg21
NssI246
(dp911
g2
S'0246'
p912
sg4
g5
sg6
Nsg7
g8
sg9
Nsg10
Nsg11
g12
sg13
I476
sg14
I12
sg15
I4194
sg16
I16
sg17
S'2018-01-03 22:08:00'
p913
sg19
S'2018-01-03 14:12:00'
p914
sg20
Nsg21
NssI247
(dp915
g2
S'0247'
p916
sg4
g5
sg6
Nsg7
g8
sg9
Nsg10
Nsg11
g12
sg13
I476
sg14
I16
sg15
I2627
sg16
I18
sg17
S'2018-01-03 22:11:00'
p917
sg19
S'2018-01-03 14:15:00'
p918
sg20
Nsg21
NssI248
(dp919
g2
S'0248'
p920
sg4
g5
sg6
Nsg7
g8
sg9
Nsg10
Nsg11
g12
sg13
I461
sg14
I18
sg15
I6120
sg16
I11
sg17
S'2018-01-03 22:14:00'
p921
sg19
S'2018-01-03 14:33:00'
p922
sg20
Nsg21
NssI249
(dp923
g2
S'0249'
p924
sg4
g5
sg6
Nsg7
g8
sg9
Nsg10
Nsg11
g12
sg13
I453
sg14
I11
sg15
I6471
sg16
I16
sg17
S'2018-01-03 22:17:00'
p925
sg19
S'2018-01-03 14:44:00'
p926
sg20
Nsg21
NssI250
(dp927
g2
S'0250'
p928
sg4
g24
sg6
Nsg7
g8
sg9
Nsg10
Nsg11
g12
sg13
I477
sg14
I16
sg15
I3727
sg16
I10
sg17
S'2018-01-03 22:45:00'
p929
sg19
S'2018-01-03 14:48:00'
p930
sg20
Nsg21
NssI251
(dp931
g2
S'0251'
p932
sg4
g24
sg6
Nsg7
g8
sg9
Nsg10
Nsg11
g12
sg13
I450
sg14
I10
sg15
I4849
sg16
I19
sg17
S'2018-01-03 22:48:00'
p933
sg19
S'2018-01-03 15:18:00'
p934
sg20
Nsg21
NssI252
(dp935
g2
S'0252'
p936
sg4
g5
sg6
Nsg7
g8
sg9
Nsg10
Nsg11
g12
sg13
I459
sg14
I19
sg15
I5228
sg16
I13
sg17
S'2018-01-03 23:16:00'
p937
sg19
S'2018-01-03 15:37:00'
p938
sg20
Nsg21
NssI253
(dp939
g2
S'0253'
p940
sg4
g5
sg6
Nsg7
g8
sg9
Nsg10
Nsg11
g12
sg13
I449
sg14
I13
sg15
I2995
sg16
I15
sg17
S'2018-01-03 23:19:00'
p941
sg19
S'2018-01-03 15:50:00'
p942
sg20
Nsg21
NssI254
(dp943
g2
S'0254'
p944
sg4
g5
sg6
Nsg7
g8
sg9
Nsg10
Nsg11
g12
sg13
I449
sg14
I15
sg15
I3809
sg16
I16
sg17
S'2018-01-03 23:22:00'
p945
sg19
S'2018-01-03 15:53:00'
p946
sg20
Nsg21
NssI255
(dp947
g2
S'0255'
p948
sg4
g24
sg6
Nsg7
g8
sg9
Nsg10
Nsg11
g12
sg13
I461
sg14
I16
sg15
I3784
sg16
I16
sg17
S'2018-01-03 23:50:00'
p949
sg19
S'2018-01-03 16:09:00'
p950
sg20
Nsg21
NssI256
(dp951
g2
S'0256'
p952
sg4
g24
sg6
Nsg7
g8
sg9
Nsg10
Nsg11
g12
sg13
I448
sg14
I16
sg15
I3644
sg16
I20
sg17
S'2018-01-03 23:53:00'
p953
sg19
S'2018-01-03 16:25:00'
p954
sg20
Nsg21
NssI257
(dp955
g2
S'0257'
p956
sg4
g5
sg6
Nsg7
g8
sg9
Nsg10
Nsg11
g12
sg13
I456
sg14
I20
sg15
I5472
sg16
I12
sg17
S'2018-01-04 00:21:00'
p957
sg19
S'2018-01-03 16:45:00'
p958
sg20
Nsg21
NssI258
(dp959
g2
S'0258'
p960
sg4
g5
sg6
Nsg7
g8
sg9
Nsg10
Nsg11
g12
sg13
I447
sg14
I12
sg15
I4478
sg16
I13
sg17
S'2018-01-04 00:24:00'
p961
sg19
S'2018-01-03 16:57:00'
p962
sg20
Nsg21
NssI259
(dp963
g2
S'0259'
p964
sg4
g24
sg6
Nsg7
g8
sg9
Nsg10
Nsg11
g12
sg13
I444
sg14
I13
sg15
I4793
sg16
I16
sg17
S'2018-01-04 00:52:00'
p965
sg19
S'2018-01-03 17:28:00'
p966
sg20
Nsg21
NssI260
(dp967
g2
S'0260'
p968
sg4
g24
sg6
Nsg7
g8
sg9
Nsg10
Nsg11
g12
sg13
I445
sg14
I16
sg15
I7341
sg16
I17
sg17
S'2018-01-04 00:55:00'
p969
sg19
S'2018-01-03 17:30:00'
p970
sg20
Nsg21
NssI261
(dp971
g2
S'0261'
p972
sg4
g5
sg6
Nsg7
g8
sg9
Nsg10
Nsg11
g12
sg13
I456
sg14
I17
sg15
I5610
sg16
I17
sg17
S'2018-01-04 01:23:00'
p973
sg19
S'2018-01-03 17:47:00'
p974
sg20
Nsg21
NssI262
(dp975
g2
S'0262'
p976
sg4
g5
sg6
Nsg7
g8
sg9
Nsg10
Nsg11
g12
sg13
I442
sg14
I17
sg15
I4721
sg16
I13
sg17
S'2018-01-04 01:26:00'
p977
sg19
S'2018-01-03 18:04:00'
p978
sg20
Nsg21
NssI263
(dp979
g2
S'0263'
p980
sg4
g24
sg6
Nsg7
g8
sg9
Nsg10
Nsg11
g12
sg13
I469
sg14
I13
sg15
I6172
sg16
I17
sg17
S'2018-01-04 01:54:00'
p981
sg19
S'2018-01-03 18:05:00'
p982
sg20
Nsg21
NssI264
(dp983
g2
S'0264'
p984
sg4
g5
sg6
Nsg7
g8
sg9
Nsg10
Nsg11
g12
sg13
I480
sg14
I17
sg15
I7281
sg16
I10
sg17
S'2018-01-04 02:22:00'
p985
sg19
S'2018-01-03 18:22:00'
p986
sg20
Nsg21
NssI265
(dp987
g2
S'0265'
p988
sg4
g24
sg6
Nsg7
g8
sg9
Nsg10
Nsg11
g12
sg13
I504
sg14
I10
sg15
I3539
sg16
I16
sg17
S'2018-01-04 02:50:00'
p989
sg19
S'2018-01-03 18:26:00'
p990
sg20
Nsg21
NssI266
(dp991
g2
S'0266'
p992
sg4
g24
sg6
Nsg7
g8
sg9
Nsg10
Nsg11
g12
sg13
I477
sg14
I16
sg15
I5235
sg16
I16
sg17
S'2018-01-04 02:53:00'
p993
sg19
S'2018-01-03 18:56:00'
p994
sg20
Nsg21
NssI267
(dp995
g2
S'0267'
p996
sg4
g5
sg6
Nsg7
g8
sg9
Nsg10
Nsg11
g12
sg13
I489
sg14
I16
sg15
I5524
sg16
I16
sg17
S'2018-01-04 03:21:00'
p997
sg19
S'2018-01-03 19:12:00'
p998
sg20
Nsg21
NssI268
(dp999
g2
S'0268'
p1000
sg4
g5
sg6
Nsg7
g8
sg9
Nsg10
Nsg11
g12
sg13
I476
sg14
I16
sg15
I4825
sg16
I17
sg17
S'2018-01-04 03:24:00'
p1001
sg19
S'2018-01-03 19:28:00'
p1002
sg20
Nsg21
NssI269
(dp1003
g2
S'0269'
p1004
sg4
g5
sg6
Nsg7
g8
sg9
Nsg10
Nsg11
g12
sg13
I462
sg14
I17
sg15
I3376
sg16
I13
sg17
S'2018-01-04 03:27:00'
p1005
sg19
S'2018-01-03 19:45:00'
p1006
sg20
Nsg21
NssI270
(dp1007
g2
S'0270'
p1008
sg4
g24
sg6
Nsg7
g8
sg9
Nsg10
Nsg11
g12
sg13
I489
sg14
I13
sg15
I4035
sg16
I14
sg17
S'2018-01-04 03:55:00'
p1009
sg19
S'2018-01-03 19:46:00'
p1010
sg20
Nsg21
NssI271
(dp1011
g2
S'0271'
p1012
sg4
g24
sg6
Nsg7
g8
sg9
Nsg10
Nsg11
g12
sg13
I488
sg14
I14
sg15
I7779
sg16
I14
sg17
S'2018-01-04 03:58:00'
p1013
sg19
S'2018-01-03 19:50:00'
p1014
sg20
Nsg21
NssI272
(dp1015
g2
S'0272'
p1016
sg4
g24
sg6
Nsg7
g8
sg9
Nsg10
Nsg11
g12
sg13
I488
sg14
I14
sg15
I4581
sg16
I13
sg17
S'2018-01-04 04:01:00'
p1017
sg19
S'2018-01-03 19:53:00'
p1018
sg20
Nsg21
NssI273
(dp1019
g2
S'0273'
p1020
sg4
g24
sg6
Nsg7
g8
sg9
Nsg10
Nsg11
g12
sg13
I487
sg14
I13
sg15
I3761
sg16
I17
sg17
S'2018-01-04 04:04:00'
p1021
sg19
S'2018-01-03 19:57:00'
p1022
sg20
Nsg21
NssI274
(dp1023
g2
S'0274'
p1024
sg4
g24
sg6
Nsg7
g8
sg9
Nsg10
Nsg11
g12
sg13
I489
sg14
I17
sg15
I2898
sg16
I20
sg17
S'2018-01-04 04:07:00'
p1025
sg19
S'2018-01-03 19:58:00'
p1026
sg20
Nsg21
NssI275
(dp1027
g2
S'0275'
p1028
sg4
g24
sg6
Nsg7
g8
sg9
Nsg10
Nsg11
g12
sg13
I472
sg14
I20
sg15
I3620
sg16
I12
sg17
S'2018-01-04 04:10:00'
p1029
sg19
S'2018-01-03 20:18:00'
p1030
sg20
Nsg21
NssI276
(dp1031
g2
S'0276'
p1032
sg4
g5
sg6
Nsg7
g8
sg9
Nsg10
Nsg11
g12
sg13
I488
sg14
I12
sg15
I5708
sg16
I17
sg17
S'2018-01-04 04:38:00'
p1033
sg19
S'2018-01-03 20:30:00'
p1034
sg20
Nsg21
NssI277
(dp1035
g2
S'0277'
p1036
sg4
g24
sg6
Nsg7
g8
sg9
Nsg10
Nsg11
g12
sg13
I514
sg14
I17
sg15
I1437
sg16
I14
sg17
S'2018-01-04 05:06:00'
p1037
sg19
S'2018-01-03 20:32:00'
p1038
sg20
Nsg21
NssI278
(dp1039
g2
S'0278'
p1040
sg4
g24
sg6
Nsg7
g8
sg9
Nsg10
Nsg11
g12
sg13
I503
sg14
I14
sg15
I4082
sg16
I9
sg17
S'2018-01-04 05:09:00'
p1041
sg19
S'2018-01-03 20:46:00'
p1042
sg20
Nsg21
NssI279
(dp1043
g2
S'0279'
p1044
sg4
g5
sg6
Nsg7
g8
sg9
Nsg10
Nsg11
g12
sg13
I498
sg14
I9
sg15
I7380
sg16
I15
sg17
S'2018-01-04 05:37:00'
p1045
sg19
S'2018-01-03 21:19:00'
p1046
sg20
Nsg21
NssI280
(dp1047
g2
S'0280'
p1048
sg4
g5
sg6
Nsg7
g8
sg9
Nsg10
Nsg11
g12
sg13
I494
sg14
I15
sg15
I5372
sg16
I15
sg17
S'2018-01-04 05:40:00'
p1049
sg19
S'2018-01-03 21:26:00'
p1050
sg20
Nsg21
NssI281
(dp1051
g2
S'0281'
p1052
sg4
g24
sg6
Nsg7
g8
sg9
Nsg10
Nsg11
g12
sg13
I507
sg14
I15
sg15
I4887
sg16
I10
sg17
S'2018-01-04 06:08:00'
p1053
sg19
S'2018-01-03 21:41:00'
p1054
sg20
Nsg21
NssI282
(dp1055
g2
S'0282'
p1056
sg4
g24
sg6
Nsg7
g8
sg9
Nsg10
Nsg11
g12
sg13
I479
sg14
I10
sg15
I5642
sg16
I4
sg17
S'2018-01-04 06:11:00'
p1057
sg19
S'2018-01-03 22:12:00'
p1058
sg20
Nsg21
NssI283
(dp1059
g2
S'0283'
p1060
sg4
g24
sg6
Nsg7
g8
sg9
Nsg10
Nsg11
g12
sg13
I465
sg14
I4
sg15
I4789
sg16
I14
sg17
S'2018-01-04 06:14:00'
p1061
sg19
S'2018-01-03 22:29:00'
p1062
sg20
Nsg21
NssI284
(dp1063
g2
S'0284'
p1064
sg4
g24
sg6
Nsg7
g8
sg9
Nsg10
Nsg11
g12
sg13
I455
sg14
I14
sg15
I6188
sg16
I19
sg17
S'2018-01-04 06:17:00'
p1065
sg19
S'2018-01-03 22:42:00'
p1066
sg20
Nsg21
NssI285
(dp1067
g2
S'0285'
p1068
sg4
g24
sg6
Nsg7
g8
sg9
Nsg10
Nsg11
g12
sg13
I439
sg14
I19
sg15
I4894
sg16
I11
sg17
S'2018-01-04 06:20:00'
p1069
sg19
S'2018-01-03 23:01:00'
p1070
sg20
Nsg21
NssI286
(dp1071
g2
S'0286'
p1072
sg4
g5
sg6
Nsg7
g8
sg9
Nsg10
Nsg11
g12
sg13
I466
sg14
I11
sg15
I7245
sg16
I15
sg17
S'2018-01-04 06:48:00'
p1073
sg19
S'2018-01-03 23:02:00'
p1074
sg20
Nsg21
NssI287
(dp1075
g2
S'0287'
p1076
sg4
g24
sg6
Nsg7
g8
sg9
Nsg10
Nsg11
g12
sg13
I464
sg14
I15
sg15
I6005
sg16
I14
sg17
S'2018-01-04 07:16:00'
p1077
sg19
S'2018-01-03 23:32:00'
p1078
sg20
Nsg21
NssI288
(dp1079
g2
S'0288'
p1080
sg4
g24
sg6
Nsg7
g8
sg9
Nsg10
Nsg11
g12
sg13
I453
sg14
I14
sg15
I6522
sg16
I11
sg17
S'2018-01-04 07:19:00'
p1081
sg19
S'2018-01-03 23:46:00'
p1082
sg20
Nsg21
NssI289
(dp1083
g2
S'0289'
p1084
sg4
g5
sg6
Nsg7
g8
sg9
Nsg10
Nsg11
g12
sg13
I475
sg14
I11
sg15
I5265
sg16
I14
sg17
S'2018-01-04 07:47:00'
p1085
sg19
S'2018-01-03 23:52:00'
p1086
sg20
Nsg21
NssI290
(dp1087
g2
S'0290'
p1088
sg4
g24
sg6
Nsg7
g8
sg9
Nsg10
Nsg11
g12
sg13
I472
sg14
I14
sg15
I3301
sg16
I13
sg17
S'2018-01-04 08:15:00'
p1089
sg19
S'2018-01-04 00:23:00'
p1090
sg20
Nsg21
NssI291
(dp1091
g2
S'0291'
p1092
sg4
g5
sg6
Nsg7
g8
sg9
Nsg10
Nsg11
g12
sg13
I471
sg14
I13
sg15
I4422
sg16
I16
sg17
S'2018-01-04 08:43:00'
p1093
sg19
S'2018-01-04 00:52:00'
p1094
sg20
Nsg21
NssI292
(dp1095
g2
S'0292'
p1096
sg4
g24
sg6
Nsg7
g8
sg9
Nsg10
Nsg11
g12
sg13
I497
sg14
I16
sg15
I2553
sg16
I13
sg17
S'2018-01-04 09:11:00'
p1097
sg19
S'2018-01-04 00:54:00'
p1098
sg20
Nsg21
NssI293
(dp1099
g2
S'0293'
p1100
sg4
g24
sg6
Nsg7
g8
sg9
Nsg10
Nsg11
g12
sg13
I498
sg14
I13
sg15
I6046
sg16
I8
sg17
S'2018-01-04 09:14:00'
p1101
sg19
S'2018-01-04 00:56:00'
p1102
sg20
Nsg21
NssI294
(dp1103
g2
S'0294'
p1104
sg4
g5
sg6
Nsg7
g8
sg9
Nsg10
Nsg11
g12
sg13
I491
sg14
I8
sg15
I5449
sg16
I15
sg17
S'2018-01-04 09:42:00'
p1105
sg19
S'2018-01-04 01:31:00'
p1106
sg20
Nsg21
NssI295
(dp1107
g2
S'0295'
p1108
sg4
g24
sg6
Nsg7
g8
sg9
Nsg10
Nsg11
g12
sg13
I486
sg14
I15
sg15
I5543
sg16
I22
sg17
S'2018-01-04 10:10:00'
p1109
sg19
S'2018-01-04 02:04:00'
p1110
sg20
Nsg21
NssI296
(dp1111
g2
S'0296'
p1112
sg4
g5
sg6
Nsg7
g8
sg9
Nsg10
Nsg11
g12
sg13
I492
sg14
I22
sg15
I7234
sg16
I11
sg17
S'2018-01-04 10:38:00'
p1113
sg19
S'2018-01-04 02:26:00'
p1114
sg20
Nsg21
NssI297
(dp1115
g2
S'0297'
p1116
sg4
g24
sg6
Nsg7
g8
sg9
Nsg10
Nsg11
g12
sg13
I509
sg14
I11
sg15
I4614
sg16
I11
sg17
S'2018-01-04 11:06:00'
p1117
sg19
S'2018-01-04 02:37:00'
p1118
sg20
Nsg21
NssI298
(dp1119
g2
S'0298'
p1120
sg4
g24
sg6
Nsg7
g8
sg9
Nsg10
Nsg11
g12
sg13
I503
sg14
I11
sg15
I6219
sg16
I11
sg17
S'2018-01-04 11:09:00'
p1121
sg19
S'2018-01-04 02:46:00'
p1122
sg20
Nsg21
NssI299
(dp1123
g2
S'0299'
p1124
sg4
g5
sg6
Nsg7
g8
sg9
Nsg10
Nsg11
g12
sg13
I497
sg14
I11
sg15
I5962
sg16
I14
sg17
S'2018-01-04 11:37:00'
p1125
sg19
S'2018-01-04 03:20:00'
p1126
sg20
Nsg21
NssI300
(dp1127
g2
S'0300'
p1128
sg4
g24
sg6
Nsg7
g8
sg9
Nsg10
Nsg11
g12
sg13
I519
sg14
I14
sg15
I6092
sg16
I18
sg17
S'2018-01-04 12:05:00'
p1129
sg19
S'2018-01-04 03:26:00'
p1130
sg20
Nsg21
NssI301
(dp1131
g2
S'0301'
p1132
sg4
g24
sg6
Nsg7
g8
sg9
Nsg10
Nsg11
g12
sg13
I504
sg14
I18
sg15
I4623
sg16
I17
sg17
S'2018-01-04 12:08:00'
p1133
sg19
S'2018-01-04 03:44:00'
p1134
sg20
Nsg21
NssI302
(dp1135
g2
S'0302'
p1136
sg4
g5
sg6
Nsg7
g8
sg9
Nsg10
Nsg11
g12
sg13
I515
sg14
I17
sg15
I3269
sg16
I12
sg17
S'2018-01-04 12:36:00'
p1137
sg19
S'2018-01-04 04:01:00'
p1138
sg20
Nsg21
NssI303
(dp1139
g2
S'0303'
p1140
sg4
g24
sg6
Nsg7
g8
sg9
Nsg10
Nsg11
g12
sg13
I531
sg14
I12
sg15
I5393
sg16
I16
sg17
S'2018-01-04 13:04:00'
p1141
sg19
S'2018-01-04 04:13:00'
p1142
sg20
Nsg21
NssI304
(dp1143
g2
S'0304'
p1144
sg4
g5
sg6
Nsg7
g8
sg9
Nsg10
Nsg11
g12
sg13
I543
sg14
I16
sg15
I3569
sg16
I10
sg17
S'2018-01-04 13:32:00'
p1145
sg19
S'2018-01-04 04:29:00'
p1146
sg20
Nsg21
NssI305
(dp1147
g2
S'0305'
p1148
sg4
g24
sg6
Nsg7
g8
sg9
Nsg10
Nsg11
g12
sg13
I566
sg14
I10
sg15
I4229
sg16
I11
sg17
S'2018-01-04 14:00:00'
p1149
sg19
S'2018-01-04 04:34:00'
p1150
sg20
Nsg21
NssI306
(dp1151
g2
S'0306'
p1152
sg4
g5
sg6
Nsg7
g8
sg9
Nsg10
Nsg11
g12
sg13
I559
sg14
I11
sg15
I7252
sg16
I14
sg17
S'2018-01-04 14:28:00'
p1153
sg19
S'2018-01-04 05:09:00'
p1154
sg20
Nsg21
NssI307
(dp1155
g2
S'0307'
p1156
sg4
g5
sg6
Nsg7
g8
sg9
Nsg10
Nsg11
g12
sg13
I556
sg14
I14
sg15
I3423
sg16
I14
sg17
S'2018-01-04 14:31:00'
p1157
sg19
S'2018-01-04 05:15:00'
p1158
sg20
Nsg21
NssI308
(dp1159
g2
S'0308'
p1160
sg4
g24
sg6
Nsg7
g8
sg9
Nsg10
Nsg11
g12
sg13
I570
sg14
I14
sg15
I3013
sg16
I18
sg17
S'2018-01-04 14:59:00'
p1161
sg19
S'2018-01-04 05:29:00'
p1162
sg20
Nsg21
NssI309
(dp1163
g2
S'0309'
p1164
sg4
g5
sg6
Nsg7
g8
sg9
Nsg10
Nsg11
g12
sg13
I580
sg14
I18
sg15
I4392
sg16
I20
sg17
S'2018-01-04 15:27:00'
p1165
sg19
S'2018-01-04 05:47:00'
p1166
sg20
Nsg21
NssI310
(dp1167
g2
S'0310'
p1168
sg4
g5
sg6
Nsg7
g8
sg9
Nsg10
Nsg11
g12
sg13
I563
sg14
I20
sg15
I5367
sg16
I21
sg17
S'2018-01-04 15:30:00'
p1169
sg19
S'2018-01-04 06:07:00'
p1170
sg20
Nsg21
NssI311
(dp1171
g2
S'0311'
p1172
sg4
g24
sg6
Nsg7
g8
sg9
Nsg10
Nsg11
g12
sg13
I570
sg14
I21
sg15
I6341
sg16
I12
sg17
S'2018-01-04 15:58:00'
p1173
sg19
S'2018-01-04 06:28:00'
p1174
sg20
Nsg21
NssI312
(dp1175
g2
S'0312'
p1176
sg4
g5
sg6
Nsg7
g8
sg9
Nsg10
Nsg11
g12
sg13
I586
sg14
I12
sg15
I5203
sg16
I14
sg17
S'2018-01-04 16:26:00'
p1177
sg19
S'2018-01-04 06:40:00'
p1178
sg20
Nsg21
NssI313
(dp1179
g2
S'0313'
p1180
sg4
g5
sg6
Nsg7
g8
sg9
Nsg10
Nsg11
g12
sg13
I559
sg14
I14
sg15
I1954
sg16
I15
sg17
S'2018-01-04 16:29:00'
p1181
sg19
S'2018-01-04 07:10:00'
p1182
sg20
Nsg21
NssI314
(dp1183
g2
S'0314'
p1184
sg4
g24
sg6
Nsg7
g8
sg9
Nsg10
Nsg11
g12
sg13
I585
sg14
I15
sg15
I4628
sg16
I18
sg17
S'2018-01-04 16:57:00'
p1185
sg19
S'2018-01-04 07:12:00'
p1186
sg20
Nsg21
NssI315
(dp1187
g2
S'0315'
p1188
sg4
g24
sg6
Nsg7
g8
sg9
Nsg10
Nsg11
g12
sg13
I570
sg14
I18
sg15
I3898
sg16
I11
sg17
S'2018-01-04 17:00:00'
p1189
sg19
S'2018-01-04 07:30:00'
p1190
sg20
Nsg21
NssI316
(dp1191
g2
S'0316'
p1192
sg4
g5
sg6
Nsg7
g8
sg9
Nsg10
Nsg11
g12
sg13
I587
sg14
I11
sg15
I3163
sg16
I16
sg17
S'2018-01-04 17:28:00'
p1193
sg19
S'2018-01-04 07:41:00'
p1194
sg20
Nsg21
NssI317
(dp1195
g2
S'0317'
p1196
sg4
g5
sg6
Nsg7
g8
sg9
Nsg10
Nsg11
g12
sg13
I586
sg14
I16
sg15
I6804
sg16
I16
sg17
S'2018-01-04 17:31:00'
p1197
sg19
S'2018-01-04 07:45:00'
p1198
sg20
Nsg21
NssI318
(dp1199
g2
S'0318'
p1200
sg4
g24
sg6
Nsg7
g8
sg9
Nsg10
Nsg11
g12
sg13
I598
sg14
I16
sg15
I5451
sg16
I15
sg17
S'2018-01-04 17:59:00'
p1201
sg19
S'2018-01-04 08:01:00'
p1202
sg20
Nsg21
NssI319
(dp1203
g2
S'0319'
p1204
sg4
g5
sg6
Nsg7
g8
sg9
Nsg10
Nsg11
g12
sg13
I611
sg14
I15
sg15
I5721
sg16
I11
sg17
S'2018-01-04 18:27:00'
p1205
sg19
S'2018-01-04 08:16:00'
p1206
sg20
Nsg21
NssI320
(dp1207
g2
S'0320'
p1208
sg4
g5
sg6
Nsg7
g8
sg9
Nsg10
Nsg11
g12
sg13
I609
sg14
I11
sg15
I5042
sg16
I15
sg17
S'2018-01-04 18:30:00'
p1209
sg19
S'2018-01-04 08:21:00'
p1210
sg20
Nsg21
NssI321
(dp1211
g2
S'0321'
p1212
sg4
g5
sg6
Nsg7
g8
sg9
Nsg10
Nsg11
g12
sg13
I582
sg14
I15
sg15
I5064
sg16
I12
sg17
S'2018-01-04 18:33:00'
p1213
sg19
S'2018-01-04 08:51:00'
p1214
sg20
Nsg21
NssI322
(dp1215
g2
S'0322'
p1216
sg4
g24
sg6
Nsg7
g8
sg9
Nsg10
Nsg11
g12
sg13
I606
sg14
I12
sg15
I2474
sg16
I13
sg17
S'2018-01-04 19:01:00'
p1217
sg19
S'2018-01-04 08:55:00'
p1218
sg20
Nsg21
NssI323
(dp1219
g2
S'0323'
p1220
sg4
g24
sg6
Nsg7
g8
sg9
Nsg10
Nsg11
g12
sg13
I603
sg14
I13
sg15
I4787
sg16
I14
sg17
S'2018-01-04 19:04:00'
p1221
sg19
S'2018-01-04 09:01:00'
p1222
sg20
Nsg21
NssI324
(dp1223
g2
S'0324'
p1224
sg4
g5
sg6
Nsg7
g8
sg9
Nsg10
Nsg11
g12
sg13
I602
sg14
I14
sg15
I6746
sg16
I14
sg17
S'2018-01-04 19:32:00'
p1225
sg19
S'2018-01-04 09:30:00'
p1226
sg20
Nsg21
NssI325
(dp1227
g2
S'0325'
p1228
sg4
g5
sg6
Nsg7
g8
sg9
Nsg10
Nsg11
g12
sg13
I591
sg14
I14
sg15
I4366
sg16
I18
sg17
S'2018-01-04 19:35:00'
p1229
sg19
S'2018-01-04 09:44:00'
p1230
sg20
Nsg21
NssI326
(dp1231
g2
S'0326'
p1232
sg4
g24
sg6
Nsg7
g8
sg9
Nsg10
Nsg11
g12
sg13
I601
sg14
I18
sg15
I3028
sg16
I14
sg17
S'2018-01-04 20:03:00'
p1233
sg19
S'2018-01-04 10:02:00'
p1234
sg20
Nsg21
NssI327
(dp1235
g2
S'0327'
p1236
sg4
g24
sg6
Nsg7
g8
sg9
Nsg10
Nsg11
g12
sg13
I590
sg14
I14
sg15
I3147
sg16
I12
sg17
S'2018-01-04 20:06:00'
p1237
sg19
S'2018-01-04 10:16:00'
p1238
sg20
Nsg21
NssI328
(dp1239
g2
S'0328'
p1240
sg4
g24
sg6
Nsg7
g8
sg9
Nsg10
Nsg11
g12
sg13
I563
sg14
I12
sg15
I6416
sg16
I15
sg17
S'2018-01-04 20:09:00'
p1241
sg19
S'2018-01-04 10:46:00'
p1242
sg20
Nsg21
NssI329
(dp1243
g2
S'0329'
p1244
sg4
g24
sg6
Nsg7
g8
sg9
Nsg10
Nsg11
g12
sg13
I562
sg14
I15
sg15
I4580
sg16
I15
sg17
S'2018-01-04 20:12:00'
p1245
sg19
S'2018-01-04 10:50:00'
p1246
sg20
Nsg21
NssI330
(dp1247
g2
S'0330'
p1248
sg4
g5
sg6
Nsg7
g8
sg9
Nsg10
Nsg11
g12
sg13
I589
sg14
I15
sg15
I3531
sg16
I12
sg17
S'2018-01-04 20:40:00'
p1249
sg19
S'2018-01-04 10:51:00'
p1250
sg20
Nsg21
NssI331
(dp1251
g2
S'0331'
p1252
sg4
g24
sg6
Nsg7
g8
sg9
Nsg10
Nsg11
g12
sg13
I588
sg14
I12
sg15
I5957
sg16
I17
sg17
S'2018-01-04 21:08:00'
p1253
sg19
S'2018-01-04 11:20:00'
p1254
sg20
Nsg21
NssI332
(dp1255
g2
S'0332'
p1256
sg4
g5
sg6
Nsg7
g8
sg9
Nsg10
Nsg11
g12
sg13
I599
sg14
I17
sg15
I4481
sg16
I12
sg17
S'2018-01-04 21:36:00'
p1257
sg19
S'2018-01-04 11:37:00'
p1258
sg20
Nsg21
NssI333
(dp1259
g2
S'0333'
p1260
sg4
g24
sg6
Nsg7
g8
sg9
Nsg10
Nsg11
g12
sg13
I625
sg14
I12
sg15
I4836
sg16
I19
sg17
S'2018-01-04 22:04:00'
p1261
sg19
S'2018-01-04 11:39:00'
p1262
sg20
Nsg21
NssI334
(dp1263
g2
S'0334'
p1264
sg4
g5
sg6
Nsg7
g8
sg9
Nsg10
Nsg11
g12
sg13
I634
sg14
I19
sg15
I5275
sg16
I14
sg17
S'2018-01-04 22:32:00'
p1265
sg19
S'2018-01-04 11:58:00'
p1266
sg20
Nsg21
NssI335
(dp1267
g2
S'0335'
p1268
sg4
g5
sg6
Nsg7
g8
sg9
Nsg10
Nsg11
g12
sg13
I623
sg14
I14
sg15
I8357
sg16
I20
sg17
S'2018-01-04 22:35:00'
p1269
sg19
S'2018-01-04 12:12:00'
p1270
sg20
Nsg21
NssI336
(dp1271
g2
S'0336'
p1272
sg4
g24
sg6
Nsg7
g8
sg9
Nsg10
Nsg11
g12
sg13
I631
sg14
I20
sg15
I3124
sg16
I17
sg17
S'2018-01-04 23:03:00'
p1273
sg19
S'2018-01-04 12:32:00'
p1274
sg20
Nsg21
NssI337
(dp1275
g2
S'0337'
p1276
sg4
g5
sg6
Nsg7
g8
sg9
Nsg10
Nsg11
g12
sg13
I642
sg14
I17
sg15
I4910
sg16
I11
sg17
S'2018-01-04 23:31:00'
p1277
sg19
S'2018-01-04 12:49:00'
p1278
sg20
Nsg21
NssI338
(dp1279
g2
S'0338'
p1280
sg4
g5
sg6
Nsg7
g8
sg9
Nsg10
Nsg11
g12
sg13
I642
sg14
I11
sg15
I9235
sg16
I14
sg17
S'2018-01-04 23:34:00'
p1281
sg19
S'2018-01-04 12:52:00'
p1282
sg20
Nsg21
NssI339
(dp1283
g2
S'0339'
p1284
sg4
g24
sg6
Nsg7
g8
sg9
Nsg10
Nsg11
g12
sg13
I639
sg14
I14
sg15
I3295
sg16
I13
sg17
S'2018-01-05 00:02:00'
p1285
sg19
S'2018-01-04 13:23:00'
p1286
sg20
Nsg21
NssI340
(dp1287
g2
S'0340'
p1288
sg4
g5
sg6
Nsg7
g8
sg9
Nsg10
Nsg11
g12
sg13
I638
sg14
I13
sg15
I3375
sg16
I19
sg17
S'2018-01-05 00:30:00'
p1289
sg19
S'2018-01-04 13:52:00'
p1290
sg20
Nsg21
NssI341
(dp1291
g2
S'0341'
p1292
sg4
g5
sg6
Nsg7
g8
sg9
Nsg10
Nsg11
g12
sg13
I622
sg14
I19
sg15
I5294
sg16
I15
sg17
S'2018-01-05 00:33:00'
p1293
sg19
S'2018-01-04 14:11:00'
p1294
sg20
Nsg21
NssI342
(dp1295
g2
S'0342'
p1296
sg4
g5
sg6
Nsg7
g8
sg9
Nsg10
Nsg11
g12
sg13
I610
sg14
I15
sg15
I5414
sg16
I17
sg17
S'2018-01-05 00:36:00'
p1297
sg19
S'2018-01-04 14:26:00'
p1298
sg20
Nsg21
NssI343
(dp1299
g2
S'0343'
p1300
sg4
g24
sg6
Nsg7
g8
sg9
Nsg10
Nsg11
g12
sg13
I621
sg14
I17
sg15
I5963
sg16
I9
sg17
S'2018-01-05 01:04:00'
p1301
sg19
S'2018-01-04 14:43:00'
p1302
sg20
Nsg21
NssI344
(dp1303
g2
S'0344'
p1304
sg4
g5
sg6
Nsg7
g8
sg9
Nsg10
Nsg11
g12
sg13
I644
sg14
I9
sg15
I3088
sg16
I15
sg17
S'2018-01-05 01:32:00'
p1305
sg19
S'2018-01-04 14:48:00'
p1306
sg20
Nsg21
NssI345
(dp1307
g2
S'0345'
p1308
sg4
g24
sg6
Nsg7
g8
sg9
Nsg10
Nsg11
g12
sg13
I665
sg14
I15
sg15
I3489
sg16
I21
sg17
S'2018-01-05 02:00:00'
p1309
sg19
S'2018-01-04 14:55:00'
p1310
sg20
Nsg21
NssI346
(dp1311
g2
S'0346'
p1312
sg4
g24
sg6
Nsg7
g8
sg9
Nsg10
Nsg11
g12
sg13
I647
sg14
I21
sg15
I4453
sg16
I17
sg17
S'2018-01-05 02:03:00'
p1313
sg19
S'2018-01-04 15:16:00'
p1314
sg20
Nsg21
NssI347
(dp1315
g2
S'0347'
p1316
sg4
g5
sg6
Nsg7
g8
sg9
Nsg10
Nsg11
g12
sg13
I658
sg14
I17
sg15
I3990
sg16
I17
sg17
S'2018-01-05 02:31:00'
p1317
sg19
S'2018-01-04 15:33:00'
p1318
sg20
Nsg21
NssI348
(dp1319
g2
S'0348'
p1320
sg4
g5
sg6
Nsg7
g8
sg9
Nsg10
Nsg11
g12
sg13
I644
sg14
I17
sg15
I6382
sg16
I17
sg17
S'2018-01-05 02:34:00'
p1321
sg19
S'2018-01-04 15:50:00'
p1322
sg20
Nsg21
NssI349
(dp1323
g2
S'0349'
p1324
sg4
g5
sg6
Nsg7
g8
sg9
Nsg10
Nsg11
g12
sg13
I630
sg14
I17
sg15
I7101
sg16
I13
sg17
S'2018-01-05 02:37:00'
p1325
sg19
S'2018-01-04 16:07:00'
p1326
sg20
Nsg21
NssI350
(dp1327
g2
S'0350'
p1328
sg4
g24
sg6
Nsg7
g8
sg9
Nsg10
Nsg11
g12
sg13
I657
sg14
I13
sg15
I2826
sg16
I13
sg17
S'2018-01-05 03:05:00'
p1329
sg19
S'2018-01-04 16:08:00'
p1330
sg20
Nsg21
NssI351
(dp1331
g2
S'0351'
p1332
sg4
g24
sg6
Nsg7
g8
sg9
Nsg10
Nsg11
g12
sg13
I630
sg14
I13
sg15
I2589
sg16
I17
sg17
S'2018-01-05 03:08:00'
p1333
sg19
S'2018-01-04 16:38:00'
p1334
sg20
Nsg21
NssI352
(dp1335
g2
S'0352'
p1336
sg4
g5
sg6
Nsg7
g8
sg9
Nsg10
Nsg11
g12
sg13
I641
sg14
I17
sg15
I4613
sg16
I16
sg17
S'2018-01-05 03:36:00'
p1337
sg19
S'2018-01-04 16:55:00'
p1338
sg20
Nsg21
NssI353
(dp1339
g2
S'0353'
p1340
sg4
g5
sg6
Nsg7
g8
sg9
Nsg10
Nsg11
g12
sg13
I628
sg14
I16
sg15
I5363
sg16
I16
sg17
S'2018-01-05 03:39:00'
p1341
sg19
S'2018-01-04 17:11:00'
p1342
sg20
Nsg21
NssI354
(dp1343
g2
S'0354'
p1344
sg4
g24
sg6
Nsg7
g8
sg9
Nsg10
Nsg11
g12
sg13
I640
sg14
I16
sg15
I7297
sg16
I16
sg17
S'2018-01-05 04:07:00'
p1345
sg19
S'2018-01-04 17:27:00'
p1346
sg20
Nsg21
NssI355
(dp1347
g2
S'0355'
p1348
sg4
g5
sg6
Nsg7
g8
sg9
Nsg10
Nsg11
g12
sg13
I652
sg14
I16
sg15
I8186
sg16
I12
sg17
S'2018-01-05 04:35:00'
p1349
sg19
S'2018-01-04 17:43:00'
p1350
sg20
Nsg21
NssI356
(dp1351
g2
S'0356'
p1352
sg4
g24
sg6
Nsg7
g8
sg9
Nsg10
Nsg11
g12
sg13
I677
sg14
I12
sg15
I4010
sg16
I14
sg17
S'2018-01-05 05:03:00'
p1353
sg19
S'2018-01-04 17:46:00'
p1354
sg20
Nsg21
NssI357
(dp1355
g2
S'0357'
p1356
sg4
g24
sg6
Nsg7
g8
sg9
Nsg10
Nsg11
g12
sg13
I675
sg14
I14
sg15
I4561
sg16
I19
sg17
S'2018-01-05 05:06:00'
p1357
sg19
S'2018-01-04 17:51:00'
p1358
sg20
Nsg21
NssI358
(dp1359
g2
S'0358'
p1360
sg4
g24
sg6
Nsg7
g8
sg9
Nsg10
Nsg11
g12
sg13
I659
sg14
I19
sg15
I7218
sg16
I11
sg17
S'2018-01-05 05:09:00'
p1361
sg19
S'2018-01-04 18:10:00'
p1362
sg20
Nsg21
NssI359
(dp1363
g2
S'0359'
p1364
sg4
g24
sg6
Nsg7
g8
sg9
Nsg10
Nsg11
g12
sg13
I661
sg14
I11
sg15
I7397
sg16
I18
sg17
S'2018-01-05 05:12:00'
p1365
sg19
S'2018-01-04 18:11:00'
p1366
sg20
Nsg21
NssI360
(dp1367
g2
S'0360'
p1368
sg4
g24
sg6
Nsg7
g8
sg9
Nsg10
Nsg11
g12
sg13
I646
sg14
I18
sg15
I5389
sg16
I12
sg17
S'2018-01-05 05:15:00'
p1369
sg19
S'2018-01-04 18:29:00'
p1370
sg20
Nsg21
NssI361
(dp1371
g2
S'0361'
p1372
sg4
g24
sg6
Nsg7
g8
sg9
Nsg10
Nsg11
g12
sg13
I637
sg14
I12
sg15
I5550
sg16
I14
sg17
S'2018-01-05 05:18:00'
p1373
sg19
S'2018-01-04 18:41:00'
p1374
sg20
Nsg21
NssI362
(dp1375
g2
S'0362'
p1376
sg4
g24
sg6
Nsg7
g8
sg9
Nsg10
Nsg11
g12
sg13
I635
sg14
I14
sg15
I7312
sg16
I14
sg17
S'2018-01-05 05:21:00'
p1377
sg19
S'2018-01-04 18:46:00'
p1378
sg20
Nsg21
NssI363
(dp1379
g2
S'0363'
p1380
sg4
g24
sg6
Nsg7
g8
sg9
Nsg10
Nsg11
g12
sg13
I624
sg14
I14
sg15
I4469
sg16
I12
sg17
S'2018-01-05 05:24:00'
p1381
sg19
S'2018-01-04 19:00:00'
p1382
sg20
Nsg21
NssI364
(dp1383
g2
S'0364'
p1384
sg4
g24
sg6
Nsg7
g8
sg9
Nsg10
Nsg11
g12
sg13
I622
sg14
I12
sg15
I6644
sg16
I8
sg17
S'2018-01-05 05:27:00'
p1385
sg19
S'2018-01-04 19:05:00'
p1386
sg20
Nsg21
NssI365
(dp1387
g2
S'0365'
p1388
sg4
g24
sg6
Nsg7
g8
sg9
Nsg10
Nsg11
g12
sg13
I614
sg14
I8
sg15
I5609
sg16
I13
sg17
S'2018-01-05 05:30:00'
p1389
sg19
S'2018-01-04 19:16:00'
p1390
sg20
Nsg21
NssI366
(dp1391
g2
S'0366'
p1392
sg4
g5
sg6
Nsg7
g8
sg9
Nsg10
Nsg11
g12
sg13
I632
sg14
I13
sg15
I4289
sg16
I12
sg17
S'2018-01-05 05:58:00'
p1393
sg19
S'2018-01-04 19:26:00'
p1394
sg20
Nsg21
NssI367
(dp1395
g2
S'0367'
p1396
sg4
g24
sg6
Nsg7
g8
sg9
Nsg10
Nsg11
g12
sg13
I654
sg14
I12
sg15
I6205
sg16
I15
sg17
S'2018-01-05 06:26:00'
p1397
sg19
S'2018-01-04 19:32:00'
p1398
sg20
Nsg21
NssI368
(dp1399
g2
S'0368'
p1400
sg4
g24
sg6
Nsg7
g8
sg9
Nsg10
Nsg11
g12
sg13
I628
sg14
I15
sg15
I2835
sg16
I15
sg17
S'2018-01-05 06:29:00'
p1401
sg19
S'2018-01-04 20:01:00'
p1402
sg20
Nsg21
NssI369
(dp1403
g2
S'0369'
p1404
sg4
g5
sg6
Nsg7
g8
sg9
Nsg10
Nsg11
g12
sg13
I641
sg14
I15
sg15
I3109
sg16
I17
sg17
S'2018-01-05 06:57:00'
p1405
sg19
S'2018-01-04 20:16:00'
p1406
sg20
Nsg21
NssI370
(dp1407
g2
S'0370'
p1408
sg4
g24
sg6
Nsg7
g8
sg9
Nsg10
Nsg11
g12
sg13
I652
sg14
I17
sg15
I4399
sg16
I17
sg17
S'2018-01-05 07:25:00'
p1409
sg19
S'2018-01-04 20:33:00'
p1410
sg20
Nsg21
NssI371
(dp1411
g2
S'0371'
p1412
sg4
g24
sg6
Nsg7
g8
sg9
Nsg10
Nsg11
g12
sg13
I638
sg14
I17
sg15
I7326
sg16
I18
sg17
S'2018-01-05 07:28:00'
p1413
sg19
S'2018-01-04 20:50:00'
p1414
sg20
Nsg21
NssI372
(dp1415
g2
S'0372'
p1416
sg4
g24
sg6
Nsg7
g8
sg9
Nsg10
Nsg11
g12
sg13
I623
sg14
I18
sg15
I6337
sg16
I10
sg17
S'2018-01-05 07:31:00'
p1417
sg19
S'2018-01-04 21:08:00'
p1418
sg20
Nsg21
NssI373
(dp1419
g2
S'0373'
p1420
sg4
g5
sg6
Nsg7
g8
sg9
Nsg10
Nsg11
g12
sg13
I641
sg14
I10
sg15
I4880
sg16
I17
sg17
S'2018-01-05 07:59:00'
p1421
sg19
S'2018-01-04 21:18:00'
p1422
sg20
Nsg21
NssI374
(dp1423
g2
S'0374'
p1424
sg4
g5
sg6
Nsg7
g8
sg9
Nsg10
Nsg11
g12
sg13
I615
sg14
I17
sg15
I4392
sg16
I14
sg17
S'2018-01-05 08:02:00'
p1425
sg19
S'2018-01-04 21:47:00'
p1426
sg20
Nsg21
NssI375
(dp1427
g2
S'0375'
p1428
sg4
g24
sg6
Nsg7
g8
sg9
Nsg10
Nsg11
g12
sg13
I629
sg14
I14
sg15
I5044
sg16
I19
sg17
S'2018-01-05 08:30:00'
p1429
sg19
S'2018-01-04 22:01:00'
p1430
sg20
Nsg21
NssI376
(dp1431
g2
S'0376'
p1432
sg4
g5
sg6
Nsg7
g8
sg9
Nsg10
Nsg11
g12
sg13
I638
sg14
I19
sg15
I2852
sg16
I14
sg17
S'2018-01-05 08:58:00'
p1433
sg19
S'2018-01-04 22:20:00'
p1434
sg20
Nsg21
NssI377
(dp1435
g2
S'0377'
p1436
sg4
g5
sg6
Nsg7
g8
sg9
Nsg10
Nsg11
g12
sg13
I627
sg14
I14
sg15
I2231
sg16
I19
sg17
S'2018-01-05 09:01:00'
p1437
sg19
S'2018-01-04 22:34:00'
p1438
sg20
Nsg21
NssI378
(dp1439
g2
S'0378'
p1440
sg4
g24
sg6
Nsg7
g8
sg9
Nsg10
Nsg11
g12
sg13
I636
sg14
I19
sg15
I3580
sg16
I17
sg17
S'2018-01-05 09:29:00'
p1441
sg19
S'2018-01-04 22:53:00'
p1442
sg20
Nsg21
NssI379
(dp1443
g2
S'0379'
p1444
sg4
g5
sg6
Nsg7
g8
sg9
Nsg10
Nsg11
g12
sg13
I647
sg14
I17
sg15
I7269
sg16
I13
sg17
S'2018-01-05 09:57:00'
p1445
sg19
S'2018-01-04 23:10:00'
p1446
sg20
Nsg21
NssI380
(dp1447
g2
S'0380'
p1448
sg4
g5
sg6
Nsg7
g8
sg9
Nsg10
Nsg11
g12
sg13
I637
sg14
I13
sg15
I5249
sg16
I11
sg17
S'2018-01-05 10:00:00'
p1449
sg19
S'2018-01-04 23:23:00'
p1450
sg20
Nsg21
Nss.