(dp0
I1
(dp1
S'index'
p2
S'0001'
p3
sS'direction'
p4
S'A'
p5
sS'train_acceleration'
p6
NsS'misrouted'
p7
S'False'
p8
sS'train_length'
p9
NsS'train_speed'
p10
NsS'train_type'
p11
S'Default'
p12
sS'delay'
p13
I0
sS'headway_prev'
p14
NsS'X+Y'
p15
I0
sS'total_weight'
p16
I4608
sS'headway_next'
p17
I14
sS'time_departure'
p18
S'2018-01-01 00:00:00'
p19
sS'time_arrival'
p20
g19
sS'train_deceleration'
p21
NsS'Future_parameters'
p22
NssI2
(dp23
g2
S'0002'
p24
sg4
S'B'
p25
sg6
Nsg7
g8
sg9
Nsg10
Nsg11
g12
sg13
I0
sg14
I14
sg15
I0
sg16
I8412
sg17
I17
sg18
S'2018-01-01 00:00:00'
p26
sg20
g26
sg21
Nsg22
NssI3
(dp27
g2
S'0003'
p28
sg4
g25
sg6
Nsg7
g8
sg9
Nsg10
Nsg11
g12
sg13
I0
sg14
I17
sg15
I0
sg16
I5226
sg17
I16
sg18
S'2018-01-01 00:17:00'
p29
sg20
g29
sg21
Nsg22
NssI4
(dp30
g2
S'0004'
p31
sg4
g25
sg6
Nsg7
g8
sg9
Nsg10
Nsg11
g12
sg13
I0
sg14
I16
sg15
I0
sg16
I6059
sg17
I13
sg18
S'2018-01-01 00:33:00'
p32
sg20
g32
sg21
Nsg22
NssI5
(dp33
g2
S'0005'
p34
sg4
g25
sg6
Nsg7
g8
sg9
Nsg10
Nsg11
g12
sg13
I0
sg14
I13
sg15
I0
sg16
I4443
sg17
I9
sg18
S'2018-01-01 00:35:00'
p35
sg20
g35
sg21
Nsg22
NssI6
(dp36
g2
S'0006'
p37
sg4
g25
sg6
Nsg7
g8
sg9
Nsg10
Nsg11
g12
sg13
I0
sg14
I9
sg15
I0
sg16
I6958
sg17
I14
sg18
S'2018-01-01 00:44:00'
p38
sg20
g38
sg21
Nsg22
NssI7
(dp39
g2
S'0007'
p40
sg4
g25
sg6
Nsg7
g8
sg9
Nsg10
Nsg11
g12
sg13
I0
sg14
I14
sg15
I0
sg16
I3952
sg17
I20
sg18
S'2018-01-01 00:52:00'
p41
sg20
g41
sg21
Nsg22
NssI8
(dp42
g2
S'0008'
p43
sg4
g5
sg6
Nsg7
g8
sg9
Nsg10
Nsg11
g12
sg13
I0
sg14
I20
sg15
I0
sg16
I2147
sg17
I15
sg18
S'2018-01-01 01:12:00'
p44
sg20
g44
sg21
Nsg22
NssI9
(dp45
g2
S'0009'
p46
sg4
g25
sg6
Nsg7
g8
sg9
Nsg10
Nsg11
g12
sg13
I0
sg14
I15
sg15
I0
sg16
I6503
sg17
I13
sg18
S'2018-01-01 01:27:00'
p47
sg20
g47
sg21
Nsg22
NssI10
(dp48
g2
S'0010'
p49
sg4
g5
sg6
Nsg7
g8
sg9
Nsg10
Nsg11
g12
sg13
I0
sg14
I13
sg15
I0
sg16
I2389
sg17
I17
sg18
S'2018-01-01 01:40:00'
p50
sg20
g50
sg21
Nsg22
NssI11
(dp51
g2
S'0011'
p52
sg4
g5
sg6
Nsg7
g8
sg9
Nsg10
Nsg11
g12
sg13
I0
sg14
I17
sg15
I0
sg16
I5687
sg17
I14
sg18
S'2018-01-01 01:57:00'
p53
sg20
g53
sg21
Nsg22
NssI12
(dp54
g2
S'0012'
p55
sg4
g25
sg6
Nsg7
g8
sg9
Nsg10
Nsg11
g12
sg13
I0
sg14
I14
sg15
I0
sg16
I7074
sg17
I14
sg18
S'2018-01-01 02:11:00'
p56
sg20
g56
sg21
Nsg22
NssI13
(dp57
g2
S'0013'
p58
sg4
g25
sg6
Nsg7
g8
sg9
Nsg10
Nsg11
g12
sg13
I0
sg14
I14
sg15
I0
sg16
I4881
sg17
I9
sg18
S'2018-01-01 02:25:00'
p59
sg20
g59
sg21
Nsg22
NssI14
(dp60
g2
S'0014'
p61
sg4
g5
sg6
Nsg7
g8
sg9
Nsg10
Nsg11
g12
sg13
I0
sg14
I9
sg15
I0
sg16
I6371
sg17
I15
sg18
S'2018-01-01 02:33:00'
p62
sg20
g62
sg21
Nsg22
NssI15
(dp63
g2
S'0015'
p64
sg4
g25
sg6
Nsg7
g8
sg9
Nsg10
Nsg11
g12
sg13
I0
sg14
I15
sg15
I0
sg16
I6427
sg17
I15
sg18
S'2018-01-01 03:05:00'
p65
sg20
g65
sg21
Nsg22
NssI16
(dp66
g2
S'0016'
p67
sg4
g5
sg6
Nsg7
g8
sg9
Nsg10
Nsg11
g12
sg13
I0
sg14
I15
sg15
I0
sg16
I689
sg17
I16
sg18
S'2018-01-01 03:20:00'
p68
sg20
g68
sg21
Nsg22
NssI17
(dp69
g2
S'0017'
p70
sg4
g5
sg6
Nsg7
g8
sg9
Nsg10
Nsg11
g12
sg13
I0
sg14
I16
sg15
I0
sg16
I4115
sg17
I18
sg18
S'2018-01-01 03:36:00'
p71
sg20
g71
sg21
Nsg22
NssI18
(dp72
g2
S'0018'
p73
sg4
g5
sg6
Nsg7
g8
sg9
Nsg10
Nsg11
g12
sg13
I0
sg14
I18
sg15
I0
sg16
I5657
sg17
I14
sg18
S'2018-01-01 03:54:00'
p74
sg20
g74
sg21
Nsg22
NssI19
(dp75
g2
S'0019'
p76
sg4
g25
sg6
Nsg7
g8
sg9
Nsg10
Nsg11
g12
sg13
I0
sg14
I14
sg15
I0
sg16
I5885
sg17
I10
sg18
S'2018-01-01 04:08:00'
p77
sg20
g77
sg21
Nsg22
NssI20
(dp78
g2
S'0020'
p79
sg4
g5
sg6
Nsg7
g8
sg9
Nsg10
Nsg11
g12
sg13
I0
sg14
I10
sg15
I0
sg16
I5800
sg17
I13
sg18
S'2018-01-01 04:40:00'
p80
sg20
g80
sg21
Nsg22
NssI21
(dp81
g2
S'0021'
p82
sg4
g5
sg6
Nsg7
g8
sg9
Nsg10
Nsg11
g12
sg13
I0
sg14
I13
sg15
I0
sg16
I6668
sg17
I12
sg18
S'2018-01-01 05:13:00'
p83
sg20
g83
sg21
Nsg22
NssI22
(dp84
g2
S'0022'
p85
sg4
g25
sg6
Nsg7
g8
sg9
Nsg10
Nsg11
g12
sg13
I0
sg14
I12
sg15
I0
sg16
I5114
sg17
I11
sg18
S'2018-01-01 05:19:00'
p86
sg20
g86
sg21
Nsg22
NssI23
(dp87
g2
S'0023'
p88
sg4
g25
sg6
Nsg7
g8
sg9
Nsg10
Nsg11
g12
sg13
I0
sg14
I11
sg15
I0
sg16
I5778
sg17
I12
sg18
S'2018-01-01 05:52:00'
p89
sg20
g89
sg21
Nsg22
NssI24
(dp90
g2
S'0024'
p91
sg4
g5
sg6
Nsg7
g8
sg9
Nsg10
Nsg11
g12
sg13
I0
sg14
I12
sg15
I0
sg16
I6773
sg17
I15
sg18
S'2018-01-01 06:00:00'
p92
sg20
g92
sg21
Nsg22
NssI25
(dp93
g2
S'0025'
p94
sg4
g25
sg6
Nsg7
g8
sg9
Nsg10
Nsg11
g12
sg13
I0
sg14
I15
sg15
I0
sg16
I5640
sg17
I15
sg18
S'2018-01-01 06:29:00'
p95
sg20
g95
sg21
Nsg22
NssI26
(dp96
g2
S'0026'
p97
sg4
g5
sg6
Nsg7
g8
sg9
Nsg10
Nsg11
g12
sg13
I0
sg14
I15
sg15
I0
sg16
I5371
sg17
I13
sg18
S'2018-01-01 06:44:00'
p98
sg20
g98
sg21
Nsg22
NssI27
(dp99
g2
S'0027'
p100
sg4
g5
sg6
Nsg7
g8
sg9
Nsg10
Nsg11
g12
sg13
I0
sg14
I13
sg15
I0
sg16
I3792
sg17
I17
sg18
S'2018-01-01 06:57:00'
p101
sg20
g101
sg21
Nsg22
NssI28
(dp102
g2
S'0028'
p103
sg4
g5
sg6
Nsg7
g8
sg9
Nsg10
Nsg11
g12
sg13
I0
sg14
I17
sg15
I0
sg16
I3928
sg17
I14
sg18
S'2018-01-01 06:58:00'
p104
sg20
g104
sg21
Nsg22
NssI29
(dp105
g2
S'0029'
p106
sg4
g25
sg6
Nsg7
g8
sg9
Nsg10
Nsg11
g12
sg13
I0
sg14
I14
sg15
I0
sg16
I2706
sg17
I13
sg18
S'2018-01-01 07:12:00'
p107
sg20
g107
sg21
Nsg22
NssI30
(dp108
g2
S'0030'
p109
sg4
g25
sg6
Nsg7
g8
sg9
Nsg10
Nsg11
g12
sg13
I0
sg14
I13
sg15
I0
sg16
I8623
sg17
I15
sg18
S'2018-01-01 07:41:00'
p110
sg20
g110
sg21
Nsg22
NssI31
(dp111
g2
S'0031'
p112
sg4
g25
sg6
Nsg7
g8
sg9
Nsg10
Nsg11
g12
sg13
I0
sg14
I15
sg15
I0
sg16
I5674
sg17
I14
sg18
S'2018-01-01 07:44:00'
p113
sg20
g113
sg21
Nsg22
NssI32
(dp114
g2
S'0032'
p115
sg4
g25
sg6
Nsg7
g8
sg9
Nsg10
Nsg11
g12
sg13
I0
sg14
I14
sg15
I0
sg16
I5577
sg17
I13
sg18
S'2018-01-01 07:46:00'
p116
sg20
g116
sg21
Nsg22
NssI33
(dp117
g2
S'0033'
p118
sg4
g25
sg6
Nsg7
g8
sg9
Nsg10
Nsg11
g12
sg13
I0
sg14
I13
sg15
I0
sg16
I6648
sg17
I14
sg18
S'2018-01-01 07:50:00'
p119
sg20
g119
sg21
Nsg22
NssI34
(dp120
g2
S'0034'
p121
sg4
g5
sg6
Nsg7
g8
sg9
Nsg10
Nsg11
g12
sg13
I0
sg14
I14
sg15
I0
sg16
I3201
sg17
I16
sg18
S'2018-01-01 07:54:00'
p122
sg20
g122
sg21
Nsg22
NssI35
(dp123
g2
S'0035'
p124
sg4
g5
sg6
Nsg7
g8
sg9
Nsg10
Nsg11
g12
sg13
I0
sg14
I16
sg15
I0
sg16
I2398
sg17
I10
sg18
S'2018-01-01 08:10:00'
p125
sg20
g125
sg21
Nsg22
NssI36
(dp126
g2
S'0036'
p127
sg4
g25
sg6
Nsg7
g8
sg9
Nsg10
Nsg11
g12
sg13
I0
sg14
I10
sg15
I0
sg16
I5300
sg17
I14
sg18
S'2018-01-01 08:15:00'
p128
sg20
g128
sg21
Nsg22
NssI37
(dp129
g2
S'0037'
p130
sg4
g5
sg6
Nsg7
g8
sg9
Nsg10
Nsg11
g12
sg13
I0
sg14
I14
sg15
I0
sg16
I6708
sg17
I12
sg18
S'2018-01-01 08:47:00'
p131
sg20
g131
sg21
Nsg22
NssI38
(dp132
g2
S'0038'
p133
sg4
g5
sg6
Nsg7
g8
sg9
Nsg10
Nsg11
g12
sg13
I0
sg14
I12
sg15
I0
sg16
I2144
sg17
I18
sg18
S'2018-01-01 09:17:00'
p134
sg20
g134
sg21
Nsg22
NssI39
(dp135
g2
S'0039'
p136
sg4
g25
sg6
Nsg7
g8
sg9
Nsg10
Nsg11
g12
sg13
I0
sg14
I18
sg15
I0
sg16
I5816
sg17
I21
sg18
S'2018-01-01 09:18:00'
p137
sg20
g137
sg21
Nsg22
NssI40
(dp138
g2
S'0040'
p139
sg4
g25
sg6
Nsg7
g8
sg9
Nsg10
Nsg11
g12
sg13
I0
sg14
I21
sg15
I0
sg16
I6318
sg17
I14
sg18
S'2018-01-01 09:39:00'
p140
sg20
g140
sg21
Nsg22
NssI41
(dp141
g2
S'0041'
p142
sg4
g5
sg6
Nsg7
g8
sg9
Nsg10
Nsg11
g12
sg13
I0
sg14
I14
sg15
I0
sg16
I4172
sg17
I15
sg18
S'2018-01-01 09:53:00'
p143
sg20
g143
sg21
Nsg22
NssI42
(dp144
g2
S'0042'
p145
sg4
g25
sg6
Nsg7
g8
sg9
Nsg10
Nsg11
g12
sg13
I0
sg14
I15
sg15
I0
sg16
I3353
sg17
I13
sg18
S'2018-01-01 10:08:00'
p146
sg20
g146
sg21
Nsg22
NssI43
(dp147
g2
S'0043'
p148
sg4
g5
sg6
Nsg7
g8
sg9
Nsg10
Nsg11
g12
sg13
I0
sg14
I13
sg15
I0
sg16
I5542
sg17
I19
sg18
S'2018-01-01 10:21:00'
p149
sg20
g149
sg21
Nsg22
NssI44
(dp150
g2
S'0044'
p151
sg4
g25
sg6
Nsg7
g8
sg9
Nsg10
Nsg11
g12
sg13
I0
sg14
I19
sg15
I0
sg16
I3564
sg17
I20
sg18
S'2018-01-01 10:40:00'
p152
sg20
g152
sg21
Nsg22
NssI45
(dp153
g2
S'0045'
p154
sg4
g5
sg6
Nsg7
g8
sg9
Nsg10
Nsg11
g12
sg13
I0
sg14
I20
sg15
I0
sg16
I5899
sg17
I16
sg18
S'2018-01-01 11:00:00'
p155
sg20
g155
sg21
Nsg22
NssI46
(dp156
g2
S'0046'
p157
sg4
g25
sg6
Nsg7
g8
sg9
Nsg10
Nsg11
g12
sg13
I0
sg14
I16
sg15
I0
sg16
I4165
sg17
I22
sg18
S'2018-01-01 11:16:00'
p158
sg20
g158
sg21
Nsg22
NssI47
(dp159
g2
S'0047'
p160
sg4
g25
sg6
Nsg7
g8
sg9
Nsg10
Nsg11
g12
sg13
I0
sg14
I22
sg15
I0
sg16
I5063
sg17
I20
sg18
S'2018-01-01 11:38:00'
p161
sg20
g161
sg21
Nsg22
NssI48
(dp162
g2
S'0048'
p163
sg4
g5
sg6
Nsg7
g8
sg9
Nsg10
Nsg11
g12
sg13
I0
sg14
I20
sg15
I0
sg16
I1788
sg17
I14
sg18
S'2018-01-01 11:58:00'
p164
sg20
g164
sg21
Nsg22
NssI49
(dp165
g2
S'0049'
p166
sg4
g25
sg6
Nsg7
g8
sg9
Nsg10
Nsg11
g12
sg13
I0
sg14
I14
sg15
I0
sg16
I5336
sg17
I10
sg18
S'2018-01-01 12:12:00'
p167
sg20
g167
sg21
Nsg22
NssI50
(dp168
g2
S'0050'
p169
sg4
g25
sg6
Nsg7
g8
sg9
Nsg10
Nsg11
g12
sg13
I0
sg14
I10
sg15
I0
sg16
I4935
sg17
I17
sg18
S'2018-01-01 12:44:00'
p170
sg20
g170
sg21
Nsg22
NssI51
(dp171
g2
S'0051'
p172
sg4
g5
sg6
Nsg7
g8
sg9
Nsg10
Nsg11
g12
sg13
I0
sg14
I17
sg15
I0
sg16
I3308
sg17
I11
sg18
S'2018-01-01 12:48:00'
p173
sg20
g173
sg21
Nsg22
NssI52
(dp174
g2
S'0052'
p175
sg4
g5
sg6
Nsg7
g8
sg9
Nsg10
Nsg11
g12
sg13
I0
sg14
I11
sg15
I0
sg16
I4310
sg17
I11
sg18
S'2018-01-01 12:59:00'
p176
sg20
g176
sg21
Nsg22
NssI53
(dp177
g2
S'0053'
p178
sg4
g25
sg6
Nsg7
g8
sg9
Nsg10
Nsg11
g12
sg13
I0
sg14
I11
sg15
I0
sg16
I3674
sg17
I11
sg18
S'2018-01-01 13:08:00'
p179
sg20
g179
sg21
Nsg22
NssI54
(dp180
g2
S'0054'
p181
sg4
g5
sg6
Nsg7
g8
sg9
Nsg10
Nsg11
g12
sg13
I0
sg14
I11
sg15
I0
sg16
I4851
sg17
I16
sg18
S'2018-01-01 13:42:00'
p182
sg20
g182
sg21
Nsg22
NssI55
(dp183
g2
S'0055'
p184
sg4
g25
sg6
Nsg7
g8
sg9
Nsg10
Nsg11
g12
sg13
I0
sg14
I16
sg15
I0
sg16
I3174
sg17
I20
sg18
S'2018-01-01 14:11:00'
p185
sg20
g185
sg21
Nsg22
NssI56
(dp186
g2
S'0056'
p187
sg4
g25
sg6
Nsg7
g8
sg9
Nsg10
Nsg11
g12
sg13
I0
sg14
I20
sg15
I0
sg16
I3254
sg17
I12
sg18
S'2018-01-01 14:31:00'
p188
sg20
g188
sg21
Nsg22
NssI57
(dp189
g2
S'0057'
p190
sg4
g5
sg6
Nsg7
g8
sg9
Nsg10
Nsg11
g12
sg13
I0
sg14
I12
sg15
I0
sg16
I4591
sg17
I10
sg18
S'2018-01-01 14:43:00'
p191
sg20
g191
sg21
Nsg22
NssI58
(dp192
g2
S'0058'
p193
sg4
g25
sg6
Nsg7
g8
sg9
Nsg10
Nsg11
g12
sg13
I0
sg14
I10
sg15
I0
sg16
I4188
sg17
I6
sg18
S'2018-01-01 15:17:00'
p194
sg20
g194
sg21
Nsg22
NssI59
(dp195
g2
S'0059'
p196
sg4
g5
sg6
Nsg7
g8
sg9
Nsg10
Nsg11
g12
sg13
I0
sg14
I6
sg15
I0
sg16
I4067
sg17
I17
sg18
S'2018-01-01 15:57:00'
p197
sg20
g197
sg21
Nsg22
NssI60
(dp198
g2
S'0060'
p199
sg4
g5
sg6
Nsg7
g8
sg9
Nsg10
Nsg11
g12
sg13
I0
sg14
I17
sg15
I0
sg16
I3740
sg17
I13
sg18
S'2018-01-01 16:30:00'
p200
sg20
g200
sg21
Nsg22
NssI61
(dp201
g2
S'0061'
p202
sg4
g25
sg6
Nsg7
g8
sg9
Nsg10
Nsg11
g12
sg13
I0
sg14
I13
sg15
I0
sg16
I6647
sg17
I14
sg18
S'2018-01-01 16:31:00'
p203
sg20
g203
sg21
Nsg22
NssI62
(dp204
g2
S'0062'
p205
sg4
g25
sg6
Nsg7
g8
sg9
Nsg10
Nsg11
g12
sg13
I0
sg14
I14
sg15
I0
sg16
I5768
sg17
I14
sg18
S'2018-01-01 17:00:00'
p206
sg20
g206
sg21
Nsg22
NssI63
(dp207
g2
S'0063'
p208
sg4
g25
sg6
Nsg7
g8
sg9
Nsg10
Nsg11
g12
sg13
I0
sg14
I14
sg15
I0
sg16
I4340
sg17
I14
sg18
S'2018-01-01 17:03:00'
p209
sg20
g209
sg21
Nsg22
NssI64
(dp210
g2
S'0064'
p211
sg4
g25
sg6
Nsg7
g8
sg9
Nsg10
Nsg11
g12
sg13
I0
sg14
I14
sg15
I0
sg16
I5160
sg17
I15
sg18
S'2018-01-01 17:06:00'
p212
sg20
g212
sg21
Nsg22
NssI65
(dp213
g2
S'0065'
p214
sg4
g25
sg6
Nsg7
g8
sg9
Nsg10
Nsg11
g12
sg13
I0
sg14
I15
sg15
I0
sg16
I2381
sg17
I12
sg18
S'2018-01-01 17:08:00'
p215
sg20
g215
sg21
Nsg22
NssI66
(dp216
g2
S'0066'
p217
sg4
g25
sg6
Nsg7
g8
sg9
Nsg10
Nsg11
g12
sg13
I0
sg14
I12
sg15
I0
sg16
I5088
sg17
I9
sg18
S'2018-01-01 17:12:00'
p218
sg20
g218
sg21
Nsg22
NssI67
(dp219
g2
S'0067'
p220
sg4
g25
sg6
Nsg7
g8
sg9
Nsg10
Nsg11
g12
sg13
I0
sg14
I9
sg15
I0
sg16
I4501
sg17
I17
sg18
S'2018-01-01 17:22:00'
p221
sg20
g221
sg21
Nsg22
NssI68
(dp222
g2
S'0068'
p223
sg4
g25
sg6
Nsg7
g8
sg9
Nsg10
Nsg11
g12
sg13
I0
sg14
I17
sg15
I0
sg16
I5933
sg17
I16
sg18
S'2018-01-01 17:27:00'
p224
sg20
g224
sg21
Nsg22
NssI69
(dp225
g2
S'0069'
p226
sg4
g5
sg6
Nsg7
g8
sg9
Nsg10
Nsg11
g12
sg13
I0
sg14
I16
sg15
I0
sg16
I3462
sg17
I17
sg18
S'2018-01-01 17:43:00'
p227
sg20
g227
sg21
Nsg22
NssI70
(dp228
g2
S'0070'
p229
sg4
g25
sg6
Nsg7
g8
sg9
Nsg10
Nsg11
g12
sg13
I0
sg14
I17
sg15
I0
sg16
I3056
sg17
I16
sg18
S'2018-01-01 18:00:00'
p230
sg20
g230
sg21
Nsg22
NssI71
(dp231
g2
S'0071'
p232
sg4
g25
sg6
Nsg7
g8
sg9
Nsg10
Nsg11
g12
sg13
I0
sg14
I16
sg15
I0
sg16
I5172
sg17
I17
sg18
S'2018-01-01 18:16:00'
p233
sg20
g233
sg21
Nsg22
NssI72
(dp234
g2
S'0072'
p235
sg4
g25
sg6
Nsg7
g8
sg9
Nsg10
Nsg11
g12
sg13
I0
sg14
I17
sg15
I0
sg16
I6806
sg17
I17
sg18
S'2018-01-01 18:33:00'
p236
sg20
g236
sg21
Nsg22
NssI73
(dp237
g2
S'0073'
p238
sg4
g5
sg6
Nsg7
g8
sg9
Nsg10
Nsg11
g12
sg13
I0
sg14
I17
sg15
I0
sg16
I5828
sg17
I17
sg18
S'2018-01-01 18:50:00'
p239
sg20
g239
sg21
Nsg22
NssI74
(dp240
g2
S'0074'
p241
sg4
g5
sg6
Nsg7
g8
sg9
Nsg10
Nsg11
g12
sg13
I0
sg14
I17
sg15
I0
sg16
I3727
sg17
I17
sg18
S'2018-01-01 19:07:00'
p242
sg20
g242
sg21
Nsg22
NssI75
(dp243
g2
S'0075'
p244
sg4
g5
sg6
Nsg7
g8
sg9
Nsg10
Nsg11
g12
sg13
I0
sg14
I17
sg15
I0
sg16
I6260
sg17
I11
sg18
S'2018-01-01 19:24:00'
p245
sg20
g245
sg21
Nsg22
NssI76
(dp246
g2
S'0076'
p247
sg4
g25
sg6
Nsg7
g8
sg9
Nsg10
Nsg11
g12
sg13
I0
sg14
I11
sg15
I0
sg16
I3705
sg17
I15
sg18
S'2018-01-01 19:27:00'
p248
sg20
g248
sg21
Nsg22
NssI77
(dp249
g2
S'0077'
p250
sg4
g25
sg6
Nsg7
g8
sg9
Nsg10
Nsg11
g12
sg13
I0
sg14
I15
sg15
I0
sg16
I5082
sg17
I9
sg18
S'2018-01-01 19:57:00'
p251
sg20
g251
sg21
Nsg22
NssI78
(dp252
g2
S'0078'
p253
sg4
g25
sg6
Nsg7
g8
sg9
Nsg10
Nsg11
g12
sg13
I0
sg14
I9
sg15
I0
sg16
I6770
sg17
I19
sg18
S'2018-01-01 20:04:00'
p254
sg20
g254
sg21
Nsg22
NssI79
(dp255
g2
S'0079'
p256
sg4
g25
sg6
Nsg7
g8
sg9
Nsg10
Nsg11
g12
sg13
I0
sg14
I19
sg15
I0
sg16
I3441
sg17
I17
sg18
S'2018-01-01 20:07:00'
p257
sg20
g257
sg21
Nsg22
NssI80
(dp258
g2
S'0080'
p259
sg4
g5
sg6
Nsg7
g8
sg9
Nsg10
Nsg11
g12
sg13
I0
sg14
I17
sg15
I0
sg16
I6294
sg17
I11
sg18
S'2018-01-01 20:24:00'
p260
sg20
g260
sg21
Nsg22
NssI81
(dp261
g2
S'0081'
p262
sg4
g5
sg6
Nsg7
g8
sg9
Nsg10
Nsg11
g12
sg13
I0
sg14
I11
sg15
I0
sg16
I3604
sg17
I13
sg18
S'2018-01-01 20:35:00'
p263
sg20
g263
sg21
Nsg22
NssI82
(dp264
g2
S'0082'
p265
sg4
g25
sg6
Nsg7
g8
sg9
Nsg10
Nsg11
g12
sg13
I0
sg14
I13
sg15
I0
sg16
I3556
sg17
I15
sg18
S'2018-01-01 20:42:00'
p266
sg20
g266
sg21
Nsg22
NssI83
(dp267
g2
S'0083'
p268
sg4
g25
sg6
Nsg7
g8
sg9
Nsg10
Nsg11
g12
sg13
I0
sg14
I15
sg15
I0
sg16
I4246
sg17
I13
sg18
S'2018-01-01 20:57:00'
p269
sg20
g269
sg21
Nsg22
NssI84
(dp270
g2
S'0084'
p271
sg4
g5
sg6
Nsg7
g8
sg9
Nsg10
Nsg11
g12
sg13
I0
sg14
I13
sg15
I0
sg16
I6195
sg17
I14
sg18
S'2018-01-01 21:00:00'
p272
sg20
g272
sg21
Nsg22
NssI85
(dp273
g2
S'0085'
p274
sg4
g5
sg6
Nsg7
g8
sg9
Nsg10
Nsg11
g12
sg13
I0
sg14
I14
sg15
I0
sg16
I4786
sg17
I13
sg18
S'2018-01-01 21:29:00'
p275
sg20
g275
sg21
Nsg22
NssI86
(dp276
g2
S'0086'
p277
sg4
g25
sg6
Nsg7
g8
sg9
Nsg10
Nsg11
g12
sg13
I0
sg14
I13
sg15
I0
sg16
I4220
sg17
I18
sg18
S'2018-01-01 21:33:00'
p278
sg20
g278
sg21
Nsg22
NssI87
(dp279
g2
S'0087'
p280
sg4
g25
sg6
Nsg7
g8
sg9
Nsg10
Nsg11
g12
sg13
I0
sg14
I18
sg15
I0
sg16
I5589
sg17
I15
sg18
S'2018-01-01 21:51:00'
p281
sg20
g281
sg21
Nsg22
NssI88
(dp282
g2
S'0088'
p283
sg4
g25
sg6
Nsg7
g8
sg9
Nsg10
Nsg11
g12
sg13
I0
sg14
I15
sg15
I0
sg16
I6048
sg17
I16
sg18
S'2018-01-01 22:06:00'
p284
sg20
g284
sg21
Nsg22
NssI89
(dp285
g2
S'0089'
p286
sg4
g5
sg6
Nsg7
g8
sg9
Nsg10
Nsg11
g12
sg13
I0
sg14
I16
sg15
I0
sg16
I2391
sg17
I15
sg18
S'2018-01-01 22:22:00'
p287
sg20
g287
sg21
Nsg22
NssI90
(dp288
g2
S'0090'
p289
sg4
g25
sg6
Nsg7
g8
sg9
Nsg10
Nsg11
g12
sg13
I0
sg14
I15
sg15
I0
sg16
I2346
sg17
I14
sg18
S'2018-01-01 22:37:00'
p290
sg20
g290
sg21
Nsg22
NssI91
(dp291
g2
S'0091'
p292
sg4
g25
sg6
Nsg7
g8
sg9
Nsg10
Nsg11
g12
sg13
I0
sg14
I14
sg15
I0
sg16
I5504
sg17
I10
sg18
S'2018-01-01 22:51:00'
p293
sg20
g293
sg21
Nsg22
NssI92
(dp294
g2
S'0092'
p295
sg4
g5
sg6
Nsg7
g8
sg9
Nsg10
Nsg11
g12
sg13
I0
sg14
I10
sg15
I0
sg16
I6380
sg17
I16
sg18
S'2018-01-01 22:58:00'
p296
sg20
g296
sg21
Nsg22
NssI93
(dp297
g2
S'0093'
p298
sg4
g5
sg6
Nsg7
g8
sg9
Nsg10
Nsg11
g12
sg13
I0
sg14
I16
sg15
I0
sg16
I5046
sg17
I17
sg18
S'2018-01-01 23:28:00'
p299
sg20
g299
sg21
Nsg22
NssI94
(dp300
g2
S'0094'
p301
sg4
g25
sg6
Nsg7
g8
sg9
Nsg10
Nsg11
g12
sg13
I0
sg14
I17
sg15
I0
sg16
I6086
sg17
I11
sg18
S'2018-01-01 23:45:00'
p302
sg20
g302
sg21
Nsg22
NssI95
(dp303
g2
S'0095'
p304
sg4
g25
sg6
Nsg7
g8
sg9
Nsg10
Nsg11
g12
sg13
I0
sg14
I11
sg15
I0
sg16
I5483
sg17
I10
sg18
S'2018-01-01 23:56:00'
p305
sg20
g305
sg21
Nsg22
NssI96
(dp306
g2
S'0096'
p307
sg4
g5
sg6
Nsg7
g8
sg9
Nsg10
Nsg11
g12
sg13
I294
sg14
I10
sS'X+Y'
p308
I5
sg16
I3281
sg17
I13
sg18
S'2018-01-02 05:00:00'
p309
sg20
S'2018-01-02 00:06:00'
p310
sg21
Nsg22
NssI97
(dp311
g2
S'0097'
p312
sg4
g25
sg6
Nsg7
g8
sg9
Nsg10
Nsg11
g12
sg13
I289
sg14
I13
sg308
I5
sg16
I4154
sg17
I15
sg18
S'2018-01-02 05:28:00'
p313
sg20
S'2018-01-02 00:39:00'
p314
sg21
Nsg22
NssI98
(dp315
g2
S'0098'
p316
sg4
g25
sg6
Nsg7
g8
sg9
Nsg10
Nsg11
g12
sg13
I289
sg14
I15
sg308
I5
sg16
I5323
sg17
I13
sg18
S'2018-01-02 05:31:00'
p317
sg20
S'2018-01-02 00:42:00'
p318
sg21
Nsg22
NssI99
(dp319
g2
S'0099'
p320
sg4
g25
sg6
Nsg7
g8
sg9
Nsg10
Nsg11
g12
sg13
I279
sg14
I13
sg308
I5
sg16
I7759
sg17
I9
sg18
S'2018-01-02 05:34:00'
p321
sg20
S'2018-01-02 00:55:00'
p322
sg21
Nsg22
NssI100
(dp323
g2
S'0100'
p324
sg4
g25
sg6
Nsg7
g8
sg9
Nsg10
Nsg11
g12
sg13
I248
sg14
I9
sg308
I5
sg16
I4232
sg17
I14
sg18
S'2018-01-02 05:37:00'
p325
sg20
S'2018-01-02 01:29:00'
p326
sg21
Nsg22
NssI101
(dp327
g2
S'0101'
p328
sg4
g25
sg6
Nsg7
g8
sg9
Nsg10
Nsg11
g12
sg13
I218
sg14
I14
sg308
I5
sg16
I5632
sg17
I14
sg18
S'2018-01-02 05:40:00'
p329
sg20
S'2018-01-02 02:02:00'
p330
sg21
Nsg22
NssI102
(dp331
g2
S'0102'
p332
sg4
g25
sg6
Nsg7
g8
sg9
Nsg10
Nsg11
g12
sg13
I207
sg14
I14
sg308
I5
sg16
I3783
sg17
I17
sg18
S'2018-01-02 05:43:00'
p333
sg20
S'2018-01-02 02:16:00'
p334
sg21
Nsg22
NssI103
(dp335
g2
S'0103'
p336
sg4
g5
sg6
Nsg7
g8
sg9
Nsg10
Nsg11
g12
sg13
I218
sg14
I17
sg308
I5
sg16
I7457
sg17
I8
sg18
S'2018-01-02 06:11:00'
p337
sg20
S'2018-01-02 02:33:00'
p338
sg21
Nsg22
NssI104
(dp339
g2
S'0104'
p340
sg4
g25
sg6
Nsg7
g8
sg9
Nsg10
Nsg11
g12
sg13
I215
sg14
I8
sg308
I5
sg16
I6950
sg17
I15
sg18
S'2018-01-02 06:39:00'
p341
sg20
S'2018-01-02 03:04:00'
p342
sg21
Nsg22
NssI105
(dp343
g2
S'0105'
p344
sg4
g5
sg6
Nsg7
g8
sg9
Nsg10
Nsg11
g12
sg13
I210
sg14
I15
sg308
I5
sg16
I1905
sg17
I16
sg18
S'2018-01-02 07:07:00'
p345
sg20
S'2018-01-02 03:37:00'
p346
sg21
Nsg22
NssI106
(dp347
g2
S'0106'
p348
sg4
g5
sg6
Nsg7
g8
sg9
Nsg10
Nsg11
g12
sg13
I197
sg14
I16
sg308
I5
sg16
I5177
sg17
I14
sg18
S'2018-01-02 07:10:00'
p349
sg20
S'2018-01-02 03:53:00'
p350
sg21
Nsg22
NssI107
(dp351
g2
S'0107'
p352
sg4
g25
sg6
Nsg7
g8
sg9
Nsg10
Nsg11
g12
sg13
I211
sg14
I14
sg308
I5
sg16
I7451
sg17
I15
sg18
S'2018-01-02 07:38:00'
p353
sg20
S'2018-01-02 04:07:00'
p354
sg21
Nsg22
NssI108
(dp355
g2
S'0108'
p356
sg4
g25
sg6
Nsg7
g8
sg9
Nsg10
Nsg11
g12
sg13
I199
sg14
I15
sg308
I5
sg16
I6540
sg17
I9
sg18
S'2018-01-02 07:41:00'
p357
sg20
S'2018-01-02 04:22:00'
p358
sg21
Nsg22
NssI109
(dp359
g2
S'0109'
p360
sg4
g5
sg6
Nsg7
g8
sg9
Nsg10
Nsg11
g12
sg13
I195
sg14
I9
sg308
I5
sg16
I2335
sg17
I16
sg18
S'2018-01-02 08:09:00'
p361
sg20
S'2018-01-02 04:54:00'
p362
sg21
Nsg22
NssI110
(dp363
g2
S'0110'
p364
sg4
g25
sg6
Nsg7
g8
sg9
Nsg10
Nsg11
g12
sg13
I192
sg14
I16
sg308
I5
sg16
I7947
sg17
I17
sg18
S'2018-01-02 08:37:00'
p365
sg20
S'2018-01-02 05:25:00'
p366
sg21
Nsg22
NssI111
(dp367
g2
S'0111'
p368
sg4
g5
sg6
Nsg7
g8
sg9
Nsg10
Nsg11
g12
sg13
I203
sg14
I17
sg308
I5
sg16
I4468
sg17
I16
sg18
S'2018-01-02 09:05:00'
p369
sg20
S'2018-01-02 05:42:00'
p370
sg21
Nsg22
NssI112
(dp371
g2
S'0112'
p372
sg4
g5
sg6
Nsg7
g8
sg9
Nsg10
Nsg11
g12
sg13
I190
sg14
I16
sg308
I5
sg16
I4594
sg17
I15
sg18
S'2018-01-02 09:08:00'
p373
sg20
S'2018-01-02 05:58:00'
p374
sg21
Nsg22
NssI113
(dp375
g2
S'0113'
p376
sg4
g5
sg6
Nsg7
g8
sg9
Nsg10
Nsg11
g12
sg13
I178
sg14
I15
sg308
I5
sg16
I4585
sg17
I17
sg18
S'2018-01-02 09:11:00'
p377
sg20
S'2018-01-02 06:13:00'
p378
sg21
Nsg22
NssI114
(dp379
g2
S'0114'
p380
sg4
g25
sg6
Nsg7
g8
sg9
Nsg10
Nsg11
g12
sg13
I189
sg14
I17
sg308
I5
sg16
I5870
sg17
I15
sg18
S'2018-01-02 09:39:00'
p381
sg20
S'2018-01-02 06:30:00'
p382
sg21
Nsg22
NssI115
(dp383
g2
S'0115'
p384
sg4
g5
sg6
Nsg7
g8
sg9
Nsg10
Nsg11
g12
sg13
I202
sg14
I15
sg308
I5
sg16
I6595
sg17
I15
sg18
S'2018-01-02 10:07:00'
p385
sg20
S'2018-01-02 06:45:00'
p386
sg21
Nsg22
NssI116
(dp387
g2
S'0116'
p388
sg4
g5
sg6
Nsg7
g8
sg9
Nsg10
Nsg11
g12
sg13
I190
sg14
I15
sg308
I5
sg16
I6846
sg17
I11
sg18
S'2018-01-02 10:10:00'
p389
sg20
S'2018-01-02 07:00:00'
p390
sg21
Nsg22
NssI117
(dp391
g2
S'0117'
p392
sg4
g25
sg6
Nsg7
g8
sg9
Nsg10
Nsg11
g12
sg13
I213
sg14
I11
sg308
I5
sg16
I5526
sg17
I16
sg18
S'2018-01-02 10:38:00'
p393
sg20
S'2018-01-02 07:05:00'
p394
sg21
Nsg22
NssI118
(dp395
g2
S'0118'
p396
sg4
g25
sg6
Nsg7
g8
sg9
Nsg10
Nsg11
g12
sg13
I212
sg14
I16
sg308
I5
sg16
I7618
sg17
I17
sg18
S'2018-01-02 10:41:00'
p397
sg20
S'2018-01-02 07:09:00'
p398
sg21
Nsg22
NssI119
(dp399
g2
S'0119'
p400
sg4
g5
sg6
Nsg7
g8
sg9
Nsg10
Nsg11
g12
sg13
I223
sg14
I17
sg308
I5
sg16
I6085
sg17
I8
sg18
S'2018-01-02 11:09:00'
p401
sg20
S'2018-01-02 07:26:00'
p402
sg21
Nsg22
NssI120
(dp403
g2
S'0120'
p404
sg4
g25
sg6
Nsg7
g8
sg9
Nsg10
Nsg11
g12
sg13
I220
sg14
I8
sg308
I5
sg16
I4369
sg17
I16
sg18
S'2018-01-02 11:37:00'
p405
sg20
S'2018-01-02 07:57:00'
p406
sg21
Nsg22
NssI121
(dp407
g2
S'0121'
p408
sg4
g5
sg6
Nsg7
g8
sg9
Nsg10
Nsg11
g12
sg13
I241
sg14
I16
sg308
I5
sg16
I3874
sg17
I16
sg18
S'2018-01-02 12:05:00'
p409
sg20
S'2018-01-02 08:04:00'
p410
sg21
Nsg22
NssI122
(dp411
g2
S'0122'
p412
sg4
g5
sg6
Nsg7
g8
sg9
Nsg10
Nsg11
g12
sg13
I228
sg14
I16
sg308
I5
sg16
I5233
sg17
I14
sg18
S'2018-01-02 12:08:00'
p413
sg20
S'2018-01-02 08:20:00'
p414
sg21
Nsg22
NssI123
(dp415
g2
S'0123'
p416
sg4
g5
sg6
Nsg7
g8
sg9
Nsg10
Nsg11
g12
sg13
I217
sg14
I14
sg308
I5
sg16
I7191
sg17
I18
sg18
S'2018-01-02 12:11:00'
p417
sg20
S'2018-01-02 08:34:00'
p418
sg21
Nsg22
NssI124
(dp419
g2
S'0124'
p420
sg4
g25
sg6
Nsg7
g8
sg9
Nsg10
Nsg11
g12
sg13
I227
sg14
I18
sg308
I5
sg16
I5685
sg17
I18
sg18
S'2018-01-02 12:39:00'
p421
sg20
S'2018-01-02 08:52:00'
p422
sg21
Nsg22
NssI125
(dp423
g2
S'0125'
p424
sg4
g25
sg6
Nsg7
g8
sg9
Nsg10
Nsg11
g12
sg13
I212
sg14
I18
sg308
I5
sg16
I5016
sg17
I11
sg18
S'2018-01-02 12:42:00'
p425
sg20
S'2018-01-02 09:10:00'
p426
sg21
Nsg22
NssI126
(dp427
g2
S'0126'
p428
sg4
g25
sg6
Nsg7
g8
sg9
Nsg10
Nsg11
g12
sg13
I213
sg14
I11
sg308
I5
sg16
I4536
sg17
I11
sg18
S'2018-01-02 12:45:00'
p429
sg20
S'2018-01-02 09:12:00'
p430
sg21
Nsg22
NssI127
(dp431
g2
S'0127'
p432
sg4
g25
sg6
Nsg7
g8
sg9
Nsg10
Nsg11
g12
sg13
I207
sg14
I11
sg308
I5
sg16
I6797
sg17
I9
sg18
S'2018-01-02 12:48:00'
p433
sg20
S'2018-01-02 09:21:00'
p434
sg21
Nsg22
NssI128
(dp435
g2
S'0128'
p436
sg4
g25
sg6
Nsg7
g8
sg9
Nsg10
Nsg11
g12
sg13
I174
sg14
I9
sg308
I5
sg16
I5548
sg17
I14
sg18
S'2018-01-02 12:51:00'
p437
sg20
S'2018-01-02 09:57:00'
p438
sg21
Nsg22
NssI129
(dp439
g2
S'0129'
p440
sg4
g5
sg6
Nsg7
g8
sg9
Nsg10
Nsg11
g12
sg13
I194
sg14
I14
sg308
I5
sg16
I4497
sg17
I19
sg18
S'2018-01-02 13:19:00'
p441
sg20
S'2018-01-02 10:05:00'
p442
sg21
Nsg22
NssI130
(dp443
g2
S'0130'
p444
sg4
g5
sg6
Nsg7
g8
sg9
Nsg10
Nsg11
g12
sg13
I178
sg14
I19
sg308
I5
sg16
I5065
sg17
I11
sg18
S'2018-01-02 13:22:00'
p445
sg20
S'2018-01-02 10:24:00'
p446
sg21
Nsg22
NssI131
(dp447
g2
S'0131'
p448
sg4
g25
sg6
Nsg7
g8
sg9
Nsg10
Nsg11
g12
sg13
I205
sg14
I11
sg308
I5
sg16
I4385
sg17
I13
sg18
S'2018-01-02 13:50:00'
p449
sg20
S'2018-01-02 10:25:00'
p450
sg21
Nsg22
NssI132
(dp451
g2
S'0132'
p452
sg4
g5
sg6
Nsg7
g8
sg9
Nsg10
Nsg11
g12
sg13
I226
sg14
I13
sg308
I5
sg16
I6642
sg17
I12
sg18
S'2018-01-02 14:18:00'
p453
sg20
S'2018-01-02 10:32:00'
p454
sg21
Nsg22
NssI133
(dp455
g2
S'0133'
p456
sg4
g5
sg6
Nsg7
g8
sg9
Nsg10
Nsg11
g12
sg13
I198
sg14
I12
sg308
I5
sg16
I4956
sg17
I9
sg18
S'2018-01-02 14:21:00'
p457
sg20
S'2018-01-02 11:03:00'
p458
sg21
Nsg22
NssI134
(dp459
g2
S'0134'
p460
sg4
g25
sg6
Nsg7
g8
sg9
Nsg10
Nsg11
g12
sg13
I191
sg14
I9
sg308
I5
sg16
I2891
sg17
I12
sg18
S'2018-01-02 14:49:00'
p461
sg20
S'2018-01-02 11:38:00'
p462
sg21
Nsg22
NssI135
(dp463
g2
S'0135'
p464
sg4
g25
sg6
Nsg7
g8
sg9
Nsg10
Nsg11
g12
sg13
I184
sg14
I12
sg308
I5
sg16
I6175
sg17
I19
sg18
S'2018-01-02 14:52:00'
p465
sg20
S'2018-01-02 11:48:00'
p466
sg21
Nsg22
NssI136
(dp467
g2
S'0136'
p468
sg4
g5
sg6
Nsg7
g8
sg9
Nsg10
Nsg11
g12
sg13
I193
sg14
I19
sg308
I5
sg16
I6585
sg17
I14
sg18
S'2018-01-02 15:20:00'
p469
sg20
S'2018-01-02 12:07:00'
p470
sg21
Nsg22
NssI137
(dp471
g2
S'0137'
p472
sg4
g25
sg6
Nsg7
g8
sg9
Nsg10
Nsg11
g12
sg13
I207
sg14
I14
sg308
I5
sg16
I6564
sg17
I11
sg18
S'2018-01-02 15:48:00'
p473
sg20
S'2018-01-02 12:21:00'
p474
sg21
Nsg22
NssI138
(dp475
g2
S'0138'
p476
sg4
g5
sg6
Nsg7
g8
sg9
Nsg10
Nsg11
g12
sg13
I204
sg14
I11
sg308
I5
sg16
I3851
sg17
I17
sg18
S'2018-01-02 16:16:00'
p477
sg20
S'2018-01-02 12:52:00'
p478
sg21
Nsg22
NssI139
(dp479
g2
S'0139'
p480
sg4
g25
sg6
Nsg7
g8
sg9
Nsg10
Nsg11
g12
sg13
I215
sg14
I17
sg308
I5
sg16
I6253
sg17
I19
sg18
S'2018-01-02 16:44:00'
p481
sg20
S'2018-01-02 13:09:00'
p482
sg21
Nsg22
NssI140
(dp483
g2
S'0140'
p484
sg4
g5
sg6
Nsg7
g8
sg9
Nsg10
Nsg11
g12
sg13
I224
sg14
I19
sg308
I5
sg16
I9051
sg17
I16
sg18
S'2018-01-02 17:12:00'
p485
sg20
S'2018-01-02 13:28:00'
p486
sg21
Nsg22
NssI141
(dp487
g2
S'0141'
p488
sg4
g25
sg6
Nsg7
g8
sg9
Nsg10
Nsg11
g12
sg13
I236
sg14
I16
sg308
I5
sg16
I3088
sg17
I19
sg18
S'2018-01-02 17:40:00'
p489
sg20
S'2018-01-02 13:44:00'
p490
sg21
Nsg22
NssI142
(dp491
g2
S'0142'
p492
sg4
g25
sg6
Nsg7
g8
sg9
Nsg10
Nsg11
g12
sg13
I220
sg14
I19
sg308
I5
sg16
I4727
sg17
I15
sg18
S'2018-01-02 17:43:00'
p493
sg20
S'2018-01-02 14:03:00'
p494
sg21
Nsg22
NssI143
(dp495
g2
S'0143'
p496
sg4
g5
sg6
Nsg7
g8
sg9
Nsg10
Nsg11
g12
sg13
I233
sg14
I15
sg308
I5
sg16
I6249
sg17
I16
sg18
S'2018-01-02 18:11:00'
p497
sg20
S'2018-01-02 14:18:00'
p498
sg21
Nsg22
NssI144
(dp499
g2
S'0144'
p500
sg4
g25
sg6
Nsg7
g8
sg9
Nsg10
Nsg11
g12
sg13
I245
sg14
I16
sg308
I5
sg16
I4352
sg17
I18
sg18
S'2018-01-02 18:39:00'
p501
sg20
S'2018-01-02 14:34:00'
p502
sg21
Nsg22
NssI145
(dp503
g2
S'0145'
p504
sg4
g25
sg6
Nsg7
g8
sg9
Nsg10
Nsg11
g12
sg13
I230
sg14
I18
sg308
I5
sg16
I4552
sg17
I13
sg18
S'2018-01-02 18:42:00'
p505
sg20
S'2018-01-02 14:52:00'
p506
sg21
Nsg22
NssI146
(dp507
g2
S'0146'
p508
sg4
g5
sg6
Nsg7
g8
sg9
Nsg10
Nsg11
g12
sg13
I245
sg14
I13
sg308
I5
sg16
I7937
sg17
I14
sg18
S'2018-01-02 19:10:00'
p509
sg20
S'2018-01-02 15:05:00'
p510
sg21
Nsg22
NssI147
(dp511
g2
S'0147'
p512
sg4
g5
sg6
Nsg7
g8
sg9
Nsg10
Nsg11
g12
sg13
I219
sg14
I14
sg308
I5
sg16
I2360
sg17
I18
sg18
S'2018-01-02 19:13:00'
p513
sg20
S'2018-01-02 15:34:00'
p514
sg21
Nsg22
NssI148
(dp515
g2
S'0148'
p516
sg4
g25
sg6
Nsg7
g8
sg9
Nsg10
Nsg11
g12
sg13
I229
sg14
I18
sg308
I5
sg16
I2277
sg17
I21
sg18
S'2018-01-02 19:41:00'
p517
sg20
S'2018-01-02 15:52:00'
p518
sg21
Nsg22
NssI149
(dp519
g2
S'0149'
p520
sg4
g5
sg6
Nsg7
g8
sg9
Nsg10
Nsg11
g12
sg13
I236
sg14
I21
sg308
I5
sg16
I4117
sg17
I16
sg18
S'2018-01-02 20:09:00'
p521
sg20
S'2018-01-02 16:13:00'
p522
sg21
Nsg22
NssI150
(dp523
g2
S'0150'
p524
sg4
g25
sg6
Nsg7
g8
sg9
Nsg10
Nsg11
g12
sg13
I248
sg14
I16
sg308
I5
sg16
I3372
sg17
I16
sg18
S'2018-01-02 20:37:00'
p525
sg20
S'2018-01-02 16:29:00'
p526
sg21
Nsg22
NssI151
(dp527
g2
S'0151'
p528
sg4
g25
sg6
Nsg7
g8
sg9
Nsg10
Nsg11
g12
sg13
I235
sg14
I16
sg308
I5
sg16
I4072
sg17
I18
sg18
S'2018-01-02 20:40:00'
p529
sg20
S'2018-01-02 16:45:00'
p530
sg21
Nsg22
NssI152
(dp531
g2
S'0152'
p532
sg4
g5
sg6
Nsg7
g8
sg9
Nsg10
Nsg11
g12
sg13
I245
sg14
I18
sg308
I5
sg16
I5277
sg17
I9
sg18
S'2018-01-02 21:08:00'
p533
sg20
S'2018-01-02 17:03:00'
p534
sg21
Nsg22
NssI153
(dp535
g2
S'0153'
p536
sg4
g25
sg6
Nsg7
g8
sg9
Nsg10
Nsg11
g12
sg13
I269
sg14
I9
sg308
I5
sg16
I7450
sg17
I12
sg18
S'2018-01-02 21:36:00'
p537
sg20
S'2018-01-02 17:07:00'
p538
sg21
Nsg22
NssI154
(dp539
g2
S'0154'
p540
sg4
g5
sg6
Nsg7
g8
sg9
Nsg10
Nsg11
g12
sg13
I262
sg14
I12
sg308
I5
sg16
I3623
sg17
I18
sg18
S'2018-01-02 22:04:00'
p541
sg20
S'2018-01-02 17:42:00'
p542
sg21
Nsg22
NssI155
(dp543
g2
S'0155'
p544
sg4
g5
sg6
Nsg7
g8
sg9
Nsg10
Nsg11
g12
sg13
I264
sg14
I18
sg308
I5
sg16
I6019
sg17
I15
sg18
S'2018-01-02 22:07:00'
p545
sg20
S'2018-01-02 17:43:00'
p546
sg21
Nsg22
NssI156
(dp547
g2
S'0156'
p548
sg4
g25
sg6
Nsg7
g8
sg9
Nsg10
Nsg11
g12
sg13
I277
sg14
I15
sg308
I5
sg16
I4877
sg17
I13
sg18
S'2018-01-02 22:35:00'
p549
sg20
S'2018-01-02 17:58:00'
p550
sg21
Nsg22
NssI157
(dp551
g2
S'0157'
p552
sg4
g25
sg6
Nsg7
g8
sg9
Nsg10
Nsg11
g12
sg13
I267
sg14
I13
sg308
I5
sg16
I7214
sg17
I18
sg18
S'2018-01-02 22:38:00'
p553
sg20
S'2018-01-02 18:11:00'
p554
sg21
Nsg22
NssI158
(dp555
g2
S'0158'
p556
sg4
g25
sg6
Nsg7
g8
sg9
Nsg10
Nsg11
g12
sg13
I252
sg14
I18
sg308
I5
sg16
I7248
sg17
I16
sg18
S'2018-01-02 22:41:00'
p557
sg20
S'2018-01-02 18:29:00'
p558
sg21
Nsg22
NssI159
(dp559
g2
S'0159'
p560
sg4
g25
sg6
Nsg7
g8
sg9
Nsg10
Nsg11
g12
sg13
I239
sg14
I16
sg308
I5
sg16
I4745
sg17
I14
sg18
S'2018-01-02 22:44:00'
p561
sg20
S'2018-01-02 18:45:00'
p562
sg21
Nsg22
NssI160
(dp563
g2
S'0160'
p564
sg4
g25
sg6
Nsg7
g8
sg9
Nsg10
Nsg11
g12
sg13
I228
sg14
I14
sg308
I5
sg16
I5342
sg17
I10
sg18
S'2018-01-02 22:47:00'
p565
sg20
S'2018-01-02 18:59:00'
p566
sg21
Nsg22
NssI161
(dp567
g2
S'0161'
p568
sg4
g25
sg6
Nsg7
g8
sg9
Nsg10
Nsg11
g12
sg13
I199
sg14
I10
sg308
I5
sg16
I6217
sg17
I15
sg18
S'2018-01-02 22:50:00'
p569
sg20
S'2018-01-02 19:31:00'
p570
sg21
Nsg22
NssI162
(dp571
g2
S'0162'
p572
sg4
g25
sg6
Nsg7
g8
sg9
Nsg10
Nsg11
g12
sg13
I196
sg14
I15
sg308
I5
sg16
I3419
sg17
I11
sg18
S'2018-01-02 22:53:00'
p573
sg20
S'2018-01-02 19:37:00'
p574
sg21
Nsg22
NssI163
(dp575
g2
S'0163'
p576
sg4
g25
sg6
Nsg7
g8
sg9
Nsg10
Nsg11
g12
sg13
I194
sg14
I11
sg308
I5
sg16
I5242
sg17
I14
sg18
S'2018-01-02 22:56:00'
p577
sg20
S'2018-01-02 19:42:00'
p578
sg21
Nsg22
NssI164
(dp579
g2
S'0164'
p580
sg4
g5
sg6
Nsg7
g8
sg9
Nsg10
Nsg11
g12
sg13
I191
sg14
I14
sg308
I5
sg16
I7169
sg17
I18
sg18
S'2018-01-02 23:24:00'
p581
sg20
S'2018-01-02 20:13:00'
p582
sg21
Nsg22
NssI165
(dp583
g2
S'0165'
p584
sg4
g25
sg6
Nsg7
g8
sg9
Nsg10
Nsg11
g12
sg13
I201
sg14
I18
sg308
I5
sg16
I5106
sg17
I14
sg18
S'2018-01-02 23:52:00'
p585
sg20
S'2018-01-02 20:31:00'
p586
sg21
Nsg22
NssI166
(dp587
g2
S'0166'
p588
sg4
g25
sg6
Nsg7
g8
sg9
Nsg10
Nsg11
g12
sg13
I190
sg14
I14
sg308
I5
sg16
I5916
sg17
I14
sg18
S'2018-01-02 23:55:00'
p589
sg20
S'2018-01-02 20:45:00'
p590
sg21
Nsg22
NssI167
(dp591
g2
S'0167'
p592
sg4
g25
sg6
Nsg7
g8
sg9
Nsg10
Nsg11
g12
sg13
I179
sg14
I14
sg308
I5
sg16
I3509
sg17
I13
sg18
S'2018-01-02 23:58:00'
p593
sg20
S'2018-01-02 20:59:00'
p594
sg21
Nsg22
NssI168
(dp595
g2
S'0168'
p596
sg4
g5
sg6
Nsg7
g8
sg9
Nsg10
Nsg11
g12
sg13
I178
sg14
I13
sg308
I5
sg16
I3862
sg17
I11
sg18
S'2018-01-03 00:26:00'
p597
sg20
S'2018-01-02 21:28:00'
p598
sg21
Nsg22
NssI169
(dp599
g2
S'0169'
p600
sg4
g5
sg6
Nsg7
g8
sg9
Nsg10
Nsg11
g12
sg13
I149
sg14
I11
sg308
I5
sg16
I6387
sg17
I13
sg18
S'2018-01-03 00:29:00'
p601
sg20
S'2018-01-02 22:00:00'
p602
sg21
Nsg22
NssI170
(dp603
g2
S'0170'
p604
sg4
g5
sg6
Nsg7
g8
sg9
Nsg10
Nsg11
g12
sg13
I145
sg14
I13
sg308
I5
sg16
I2290
sg17
I18
sg18
S'2018-01-03 00:32:00'
p605
sg20
S'2018-01-02 22:07:00'
p606
sg21
Nsg22
NssI171
(dp607
g2
S'0171'
p608
sg4
g25
sg6
Nsg7
g8
sg9
Nsg10
Nsg11
g12
sg13
I155
sg14
I18
sg308
I5
sg16
I6073
sg17
I19
sg18
S'2018-01-03 01:00:00'
p609
sg20
S'2018-01-02 22:25:00'
p610
sg21
Nsg22
NssI172
(dp611
g2
S'0172'
p612
sg4
g25
sg6
Nsg7
g8
sg9
Nsg10
Nsg11
g12
sg13
I139
sg14
I19
sg308
I5
sg16
I5029
sg17
I11
sg18
S'2018-01-03 01:03:00'
p613
sg20
S'2018-01-02 22:44:00'
p614
sg21
Nsg22
NssI173
(dp615
g2
S'0173'
p616
sg4
g25
sg6
Nsg7
g8
sg9
Nsg10
Nsg11
g12
sg13
I141
sg14
I11
sg308
I5
sg16
I5161
sg17
I16
sg18
S'2018-01-03 01:06:00'
p617
sg20
S'2018-01-02 22:45:00'
p618
sg21
Nsg22
NssI174
(dp619
g2
S'0174'
p620
sg4
g25
sg6
Nsg7
g8
sg9
Nsg10
Nsg11
g12
sg13
I115
sg14
I16
sg308
I5
sg16
I4256
sg17
I13
sg18
S'2018-01-03 01:09:00'
p621
sg20
S'2018-01-02 23:14:00'
p622
sg21
Nsg22
NssI175
(dp623
g2
S'0175'
p624
sg4
g5
sg6
Nsg7
g8
sg9
Nsg10
Nsg11
g12
sg13
I130
sg14
I13
sg308
I5
sg16
I4838
sg17
I12
sg18
S'2018-01-03 01:37:00'
p625
sg20
S'2018-01-02 23:27:00'
p626
sg21
Nsg22
NssI176
(dp627
g2
S'0176'
p628
sg4
g5
sg6
Nsg7
g8
sg9
Nsg10
Nsg11
g12
sg13
I127
sg14
I12
sg308
I5
sg16
I4865
sg17
I14
sg18
S'2018-01-03 01:40:00'
p629
sg20
S'2018-01-02 23:33:00'
p630
sg21
Nsg22
NssI177
(dp631
g2
S'0177'
p632
sg4
g25
sg6
Nsg7
g8
sg9
Nsg10
Nsg11
g12
sg13
I125
sg14
I14
sg308
I5
sg16
I5453
sg17
I15
sg18
S'2018-01-03 02:08:00'
p633
sg20
S'2018-01-03 00:03:00'
p634
sg21
Nsg22
NssI178
(dp635
g2
S'0178'
p636
sg4
g25
sg6
Nsg7
g8
sg9
Nsg10
Nsg11
g12
sg13
I126
sg14
I15
sg308
I5
sg16
I3754
sg17
I16
sg18
S'2018-01-03 02:11:00'
p637
sg20
S'2018-01-03 00:05:00'
p638
sg21
Nsg22
NssI179
(dp639
g2
S'0179'
p640
sg4
g5
sg6
Nsg7
g8
sg9
Nsg10
Nsg11
g12
sg13
I138
sg14
I16
sg308
I5
sg16
I5677
sg17
I14
sg18
S'2018-01-03 02:39:00'
p641
sg20
S'2018-01-03 00:21:00'
p642
sg21
Nsg22
NssI180
(dp643
g2
S'0180'
p644
sg4
g5
sg6
Nsg7
g8
sg9
Nsg10
Nsg11
g12
sg13
I127
sg14
I14
sg308
I5
sg16
I6108
sg17
I17
sg18
S'2018-01-03 02:42:00'
p645
sg20
S'2018-01-03 00:35:00'
p646
sg21
Nsg22
NssI181
(dp647
g2
S'0181'
p648
sg4
g25
sg6
Nsg7
g8
sg9
Nsg10
Nsg11
g12
sg13
I138
sg14
I17
sg308
I5
sg16
I6053
sg17
I15
sg18
S'2018-01-03 03:10:00'
p649
sg20
S'2018-01-03 00:52:00'
p650
sg21
Nsg22
NssI182
(dp651
g2
S'0182'
p652
sg4
g25
sg6
Nsg7
g8
sg9
Nsg10
Nsg11
g12
sg13
I126
sg14
I15
sg308
I5
sg16
I5739
sg17
I13
sg18
S'2018-01-03 03:13:00'
p653
sg20
S'2018-01-03 01:07:00'
p654
sg21
Nsg22
NssI183
(dp655
g2
S'0183'
p656
sg4
g25
sg6
Nsg7
g8
sg9
Nsg10
Nsg11
g12
sg13
I126
sg14
I13
sg308
I5
sg16
I6374
sg17
I13
sg18
S'2018-01-03 03:16:00'
p657
sg20
S'2018-01-03 01:10:00'
p658
sg21
Nsg22
NssI184
(dp659
g2
S'0184'
p660
sg4
g5
sg6
Nsg7
g8
sg9
Nsg10
Nsg11
g12
sg13
I124
sg14
I13
sg308
I5
sg16
I3942
sg17
I10
sg18
S'2018-01-03 03:44:00'
p661
sg20
S'2018-01-03 01:40:00'
p662
sg21
Nsg22
NssI185
(dp663
g2
S'0185'
p664
sg4
g25
sg6
Nsg7
g8
sg9
Nsg10
Nsg11
g12
sg13
I144
sg14
I10
sg308
I5
sg16
I5835
sg17
I19
sg18
S'2018-01-03 04:12:00'
p665
sg20
S'2018-01-03 01:48:00'
p666
sg21
Nsg22
NssI186
(dp667
g2
S'0186'
p668
sg4
g25
sg6
Nsg7
g8
sg9
Nsg10
Nsg11
g12
sg13
I145
sg14
I19
sg308
I5
sg16
I5338
sg17
I19
sg18
S'2018-01-03 04:15:00'
p669
sg20
S'2018-01-03 01:50:00'
p670
sg21
Nsg22
NssI187
(dp671
g2
S'0187'
p672
sg4
g5
sg6
Nsg7
g8
sg9
Nsg10
Nsg11
g12
sg13
I154
sg14
I19
sg308
I5
sg16
I2970
sg17
I15
sg18
S'2018-01-03 04:43:00'
p673
sg20
S'2018-01-03 02:09:00'
p674
sg21
Nsg22
NssI188
(dp675
g2
S'0188'
p676
sg4
g5
sg6
Nsg7
g8
sg9
Nsg10
Nsg11
g12
sg13
I142
sg14
I15
sg308
I5
sg16
I4117
sg17
I11
sg18
S'2018-01-03 04:46:00'
p677
sg20
S'2018-01-03 02:24:00'
p678
sg21
Nsg22
NssI189
(dp679
g2
S'0189'
p680
sg4
g25
sg6
Nsg7
g8
sg9
Nsg10
Nsg11
g12
sg13
I140
sg14
I11
sg308
I5
sg16
I5750
sg17
I8
sg18
S'2018-01-03 05:14:00'
p681
sg20
S'2018-01-03 02:54:00'
p682
sg21
Nsg22
NssI190
(dp683
g2
S'0190'
p684
sg4
g25
sg6
Nsg7
g8
sg9
Nsg10
Nsg11
g12
sg13
I131
sg14
I8
sg308
I5
sg16
I4508
sg17
I14
sg18
S'2018-01-03 05:17:00'
p685
sg20
S'2018-01-03 03:06:00'
p686
sg21
Nsg22
NssI191
(dp687
g2
S'0191'
p688
sg4
g5
sg6
Nsg7
g8
sg9
Nsg10
Nsg11
g12
sg13
I150
sg14
I14
sg308
I5
sg16
I6217
sg17
I8
sg18
S'2018-01-03 05:45:00'
p689
sg20
S'2018-01-03 03:15:00'
p690
sg21
Nsg22
NssI192
(dp691
g2
S'0192'
p692
sg4
g5
sg6
Nsg7
g8
sg9
Nsg10
Nsg11
g12
sg13
I119
sg14
I8
sg308
I5
sg16
I1847
sg17
I13
sg18
S'2018-01-03 05:48:00'
p693
sg20
S'2018-01-03 03:49:00'
p694
sg21
Nsg22
NssI193
(dp695
g2
S'0193'
p696
sg4
g25
sg6
Nsg7
g8
sg9
Nsg10
Nsg11
g12
sg13
I112
sg14
I13
sg308
I5
sg16
I2083
sg17
I13
sg18
S'2018-01-03 06:16:00'
p697
sg20
S'2018-01-03 04:24:00'
p698
sg21
Nsg22
NssI194
(dp699
g2
S'0194'
p700
sg4
g5
sg6
Nsg7
g8
sg9
Nsg10
Nsg11
g12
sg13
I110
sg14
I13
sg308
I5
sg16
I2513
sg17
I10
sg18
S'2018-01-03 06:44:00'
p701
sg20
S'2018-01-03 04:54:00'
p702
sg21
Nsg22
NssI195
(dp703
g2
S'0195'
p704
sg4
g25
sg6
Nsg7
g8
sg9
Nsg10
Nsg11
g12
sg13
I105
sg14
I10
sg308
I5
sg16
I4520
sg17
I14
sg18
S'2018-01-03 07:12:00'
p705
sg20
S'2018-01-03 05:27:00'
p706
sg21
Nsg22
NssI196
(dp707
g2
S'0196'
p708
sg4
g5
sg6
Nsg7
g8
sg9
Nsg10
Nsg11
g12
sg13
I126
sg14
I14
sg308
I5
sg16
I8372
sg17
I14
sg18
S'2018-01-03 07:40:00'
p709
sg20
S'2018-01-03 05:34:00'
p710
sg21
Nsg22
NssI197
(dp711
g2
S'0197'
p712
sg4
g25
sg6
Nsg7
g8
sg9
Nsg10
Nsg11
g12
sg13
I140
sg14
I14
sg308
I5
sg16
I5280
sg17
I13
sg18
S'2018-01-03 08:08:00'
p713
sg20
S'2018-01-03 05:48:00'
p714
sg21
Nsg22
NssI198
(dp715
g2
S'0198'
p716
sg4
g5
sg6
Nsg7
g8
sg9
Nsg10
Nsg11
g12
sg13
I139
sg14
I13
sg308
I5
sg16
I3617
sg17
I11
sg18
S'2018-01-03 08:36:00'
p717
sg20
S'2018-01-03 06:17:00'
p718
sg21
Nsg22
NssI199
(dp719
g2
S'0199'
p720
sg4
g25
sg6
Nsg7
g8
sg9
Nsg10
Nsg11
g12
sg13
I160
sg14
I11
sg308
I5
sg16
I5883
sg17
I6
sg18
S'2018-01-03 09:04:00'
p721
sg20
S'2018-01-03 06:24:00'
p722
sg21
Nsg22
NssI200
(dp723
g2
S'0200'
p724
sg4
g5
sg6
Nsg7
g8
sg9
Nsg10
Nsg11
g12
sg13
I149
sg14
I6
sg308
I5
sg16
I5189
sg17
I13
sg18
S'2018-01-03 09:32:00'
p725
sg20
S'2018-01-03 07:03:00'
p726
sg21
Nsg22
NssI201
(dp727
g2
S'0201'
p728
sg4
g25
sg6
Nsg7
g8
sg9
Nsg10
Nsg11
g12
sg13
I140
sg14
I13
sg308
I5
sg16
I2846
sg17
I14
sg18
S'2018-01-03 10:00:00'
p729
sg20
S'2018-01-03 07:40:00'
p730
sg21
Nsg22
NssI202
(dp731
g2
S'0202'
p732
sg4
g5
sg6
Nsg7
g8
sg9
Nsg10
Nsg11
g12
sg13
I164
sg14
I14
sg308
I5
sg16
I5832
sg17
I15
sg18
S'2018-01-03 10:28:00'
p733
sg20
S'2018-01-03 07:44:00'
p734
sg21
Nsg22
NssI203
(dp735
g2
S'0203'
p736
sg4
g25
sg6
Nsg7
g8
sg9
Nsg10
Nsg11
g12
sg13
I190
sg14
I15
sg308
I5
sg16
I6433
sg17
I12
sg18
S'2018-01-03 10:56:00'
p737
sg20
S'2018-01-03 07:46:00'
p738
sg21
Nsg22
NssI204
(dp739
g2
S'0204'
p740
sg4
g5
sg6
Nsg7
g8
sg9
Nsg10
Nsg11
g12
sg13
I189
sg14
I12
sg308
I5
sg16
I4666
sg17
I11
sg18
S'2018-01-03 11:24:00'
p741
sg20
S'2018-01-03 08:15:00'
p742
sg21
Nsg22
NssI205
(dp743
g2
S'0205'
p744
sg4
g5
sg6
Nsg7
g8
sg9
Nsg10
Nsg11
g12
sg13
I184
sg14
I11
sg308
I5
sg16
I2937
sg17
I12
sg18
S'2018-01-03 11:27:00'
p745
sg20
S'2018-01-03 08:23:00'
p746
sg21
Nsg22
NssI206
(dp747
g2
S'0206'
p748
sg4
g5
sg6
Nsg7
g8
sg9
Nsg10
Nsg11
g12
sg13
I179
sg14
I12
sg308
I5
sg16
I3004
sg17
I18
sg18
S'2018-01-03 11:30:00'
p749
sg20
S'2018-01-03 08:31:00'
p750
sg21
Nsg22
NssI207
(dp751
g2
S'0207'
p752
sg4
g5
sg6
Nsg7
g8
sg9
Nsg10
Nsg11
g12
sg13
I164
sg14
I18
sg308
I5
sg16
I4927
sg17
I10
sg18
S'2018-01-03 11:33:00'
p753
sg20
S'2018-01-03 08:49:00'
p754
sg21
Nsg22
NssI208
(dp755
g2
S'0208'
p756
sg4
g25
sg6
Nsg7
g8
sg9
Nsg10
Nsg11
g12
sg13
I189
sg14
I10
sg308
I5
sg16
I4259
sg17
I12
sg18
S'2018-01-03 12:01:00'
p757
sg20
S'2018-01-03 08:52:00'
p758
sg21
Nsg22
NssI209
(dp759
g2
S'0209'
p760
sg4
g5
sg6
Nsg7
g8
sg9
Nsg10
Nsg11
g12
sg13
I208
sg14
I12
sg308
I5
sg16
I5799
sg17
I15
sg18
S'2018-01-03 12:29:00'
p761
sg20
S'2018-01-03 09:01:00'
p762
sg21
Nsg22
NssI210
(dp763
g2
S'0210'
p764
sg4
g25
sg6
Nsg7
g8
sg9
Nsg10
Nsg11
g12
sg13
I232
sg14
I15
sg308
I5
sg16
I4819
sg17
I18
sg18
S'2018-01-03 12:57:00'
p765
sg20
S'2018-01-03 09:05:00'
p766
sg21
Nsg22
NssI211
(dp767
g2
S'0211'
p768
sg4
g25
sg6
Nsg7
g8
sg9
Nsg10
Nsg11
g12
sg13
I217
sg14
I18
sg308
I5
sg16
I2917
sg17
I15
sg18
S'2018-01-03 13:00:00'
p769
sg20
S'2018-01-03 09:23:00'
p770
sg21
Nsg22
NssI212
(dp771
g2
S'0212'
p772
sg4
g25
sg6
Nsg7
g8
sg9
Nsg10
Nsg11
g12
sg13
I205
sg14
I15
sg308
I5
sg16
I7891
sg17
I18
sg18
S'2018-01-03 13:03:00'
p773
sg20
S'2018-01-03 09:38:00'
p774
sg21
Nsg22
NssI213
(dp775
g2
S'0213'
p776
sg4
g25
sg6
Nsg7
g8
sg9
Nsg10
Nsg11
g12
sg13
I190
sg14
I18
sg308
I5
sg16
I4138
sg17
I17
sg18
S'2018-01-03 13:06:00'
p777
sg20
S'2018-01-03 09:56:00'
p778
sg21
Nsg22
NssI214
(dp779
g2
S'0214'
p780
sg4
g5
sg6
Nsg7
g8
sg9
Nsg10
Nsg11
g12
sg13
I201
sg14
I17
sg308
I5
sg16
I4305
sg17
I14
sg18
S'2018-01-03 13:34:00'
p781
sg20
S'2018-01-03 10:13:00'
p782
sg21
Nsg22
NssI215
(dp783
g2
S'0215'
p784
sg4
g5
sg6
Nsg7
g8
sg9
Nsg10
Nsg11
g12
sg13
I190
sg14
I14
sg308
I5
sg16
I5241
sg17
I15
sg18
S'2018-01-03 13:37:00'
p785
sg20
S'2018-01-03 10:27:00'
p786
sg21
Nsg22
NssI216
(dp787
g2
S'0216'
p788
sg4
g5
sg6
Nsg7
g8
sg9
Nsg10
Nsg11
g12
sg13
I191
sg14
I15
sg308
I5
sg16
I4279
sg17
I13
sg18
S'2018-01-03 13:40:00'
p789
sg20
S'2018-01-03 10:29:00'
p790
sg21
Nsg22
NssI217
(dp791
g2
S'0217'
p792
sg4
g25
sg6
Nsg7
g8
sg9
Nsg10
Nsg11
g12
sg13
I206
sg14
I13
sg308
I5
sg16
I4989
sg17
I12
sg18
S'2018-01-03 14:08:00'
p793
sg20
S'2018-01-03 10:42:00'
p794
sg21
Nsg22
NssI218
(dp795
g2
S'0218'
p796
sg4
g25
sg6
Nsg7
g8
sg9
Nsg10
Nsg11
g12
sg13
I178
sg14
I12
sg308
I5
sg16
I5332
sg17
I16
sg18
S'2018-01-03 14:11:00'
p797
sg20
S'2018-01-03 11:13:00'
p798
sg21
Nsg22
NssI219
(dp799
g2
S'0219'
p800
sg4
g5
sg6
Nsg7
g8
sg9
Nsg10
Nsg11
g12
sg13
I190
sg14
I16
sg308
I5
sg16
I9133
sg17
I16
sg18
S'2018-01-03 14:39:00'
p801
sg20
S'2018-01-03 11:29:00'
p802
sg21
Nsg22
NssI220
(dp803
g2
S'0220'
p804
sg4
g5
sg6
Nsg7
g8
sg9
Nsg10
Nsg11
g12
sg13
I177
sg14
I16
sg308
I5
sg16
I6305
sg17
I17
sg18
S'2018-01-03 14:42:00'
p805
sg20
S'2018-01-03 11:45:00'
p806
sg21
Nsg22
NssI221
(dp807
g2
S'0221'
p808
sg4
g5
sg6
Nsg7
g8
sg9
Nsg10
Nsg11
g12
sg13
I163
sg14
I17
sg308
I5
sg16
I4273
sg17
I10
sg18
S'2018-01-03 14:45:00'
p809
sg20
S'2018-01-03 12:02:00'
p810
sg21
Nsg22
NssI222
(dp811
g2
S'0222'
p812
sg4
g25
sg6
Nsg7
g8
sg9
Nsg10
Nsg11
g12
sg13
I187
sg14
I10
sg308
I5
sg16
I5176
sg17
I11
sg18
S'2018-01-03 15:13:00'
p813
sg20
S'2018-01-03 12:06:00'
p814
sg21
Nsg22
NssI223
(dp815
g2
S'0223'
p816
sg4
g25
sg6
Nsg7
g8
sg9
Nsg10
Nsg11
g12
sg13
I180
sg14
I11
sg308
I5
sg16
I5924
sg17
I17
sg18
S'2018-01-03 15:16:00'
p817
sg20
S'2018-01-03 12:16:00'
p818
sg21
Nsg22
NssI224
(dp819
g2
S'0224'
p820
sg4
g25
sg6
Nsg7
g8
sg9
Nsg10
Nsg11
g12
sg13
I180
sg14
I17
sg308
I5
sg16
I2999
sg17
I16
sg18
S'2018-01-03 15:19:00'
p821
sg20
S'2018-01-03 12:19:00'
p822
sg21
Nsg22
NssI225
(dp823
g2
S'0225'
p824
sg4
g25
sg6
Nsg7
g8
sg9
Nsg10
Nsg11
g12
sg13
I167
sg14
I16
sg308
I5
sg16
I4699
sg17
I10
sg18
S'2018-01-03 15:22:00'
p825
sg20
S'2018-01-03 12:35:00'
p826
sg21
Nsg22
NssI226
(dp827
g2
S'0226'
p828
sg4
g25
sg6
Nsg7
g8
sg9
Nsg10
Nsg11
g12
sg13
I140
sg14
I10
sg308
I5
sg16
I5892
sg17
I12
sg18
S'2018-01-03 15:25:00'
p829
sg20
S'2018-01-03 13:05:00'
p830
sg21
Nsg22
NssI227
(dp831
g2
S'0227'
p832
sg4
g5
sg6
Nsg7
g8
sg9
Nsg10
Nsg11
g12
sg13
I159
sg14
I12
sg308
I5
sg16
I6835
sg17
I12
sg18
S'2018-01-03 15:53:00'
p833
sg20
S'2018-01-03 13:14:00'
p834
sg21
Nsg22
NssI228
(dp835
g2
S'0228'
p836
sg4
g25
sg6
Nsg7
g8
sg9
Nsg10
Nsg11
g12
sg13
I180
sg14
I12
sg308
I5
sg16
I8313
sg17
I11
sg18
S'2018-01-03 16:21:00'
p837
sg20
S'2018-01-03 13:21:00'
p838
sg21
Nsg22
NssI229
(dp839
g2
S'0229'
p840
sg4
g25
sg6
Nsg7
g8
sg9
Nsg10
Nsg11
g12
sg13
I175
sg14
I11
sg308
I5
sg16
I5666
sg17
I15
sg18
S'2018-01-03 16:24:00'
p841
sg20
S'2018-01-03 13:29:00'
p842
sg21
Nsg22
NssI230
(dp843
g2
S'0230'
p844
sg4
g25
sg6
Nsg7
g8
sg9
Nsg10
Nsg11
g12
sg13
I173
sg14
I15
sg308
I5
sg16
I5898
sg17
I14
sg18
S'2018-01-03 16:27:00'
p845
sg20
S'2018-01-03 13:34:00'
p846
sg21
Nsg22
NssI231
(dp847
g2
S'0231'
p848
sg4
g5
sg6
Nsg7
g8
sg9
Nsg10
Nsg11
g12
sg13
I199
sg14
I14
sg308
I5
sg16
I8144
sg17
I14
sg18
S'2018-01-03 16:55:00'
p849
sg20
S'2018-01-03 13:36:00'
p850
sg21
Nsg22
NssI232
(dp851
g2
S'0232'
p852
sg4
g25
sg6
Nsg7
g8
sg9
Nsg10
Nsg11
g12
sg13
I213
sg14
I14
sg308
I5
sg16
I900
sg17
I15
sg18
S'2018-01-03 17:23:00'
p853
sg20
S'2018-01-03 13:50:00'
p854
sg21
Nsg22
NssI233
(dp855
g2
S'0233'
p856
sg4
g5
sg6
Nsg7
g8
sg9
Nsg10
Nsg11
g12
sg13
I239
sg14
I15
sg308
I5
sg16
I5988
sg17
I12
sg18
S'2018-01-03 17:51:00'
p857
sg20
S'2018-01-03 13:52:00'
p858
sg21
Nsg22
NssI234
(dp859
g2
S'0234'
p860
sg4
g5
sg6
Nsg7
g8
sg9
Nsg10
Nsg11
g12
sg13
I213
sg14
I12
sg308
I5
sg16
I4346
sg17
I11
sg18
S'2018-01-03 17:54:00'
p861
sg20
S'2018-01-03 14:21:00'
p862
sg21
Nsg22
NssI235
(dp863
g2
S'0235'
p864
sg4
g5
sg6
Nsg7
g8
sg9
Nsg10
Nsg11
g12
sg13
I208
sg14
I11
sg308
I5
sg16
I6199
sg17
I16
sg18
S'2018-01-03 17:57:00'
p865
sg20
S'2018-01-03 14:29:00'
p866
sg21
Nsg22
NssI236
(dp867
g2
S'0236'
p868
sg4
g5
sg6
Nsg7
g8
sg9
Nsg10
Nsg11
g12
sg13
I207
sg14
I16
sg308
I5
sg16
I5360
sg17
I18
sg18
S'2018-01-03 18:00:00'
p869
sg20
S'2018-01-03 14:33:00'
p870
sg21
Nsg22
NssI237
(dp871
g2
S'0237'
p872
sg4
g25
sg6
Nsg7
g8
sg9
Nsg10
Nsg11
g12
sg13
I217
sg14
I18
sg308
I5
sg16
I5284
sg17
I12
sg18
S'2018-01-03 18:28:00'
p873
sg20
S'2018-01-03 14:51:00'
p874
sg21
Nsg22
NssI238
(dp875
g2
S'0238'
p876
sg4
g25
sg6
Nsg7
g8
sg9
Nsg10
Nsg11
g12
sg13
I208
sg14
I12
sg308
I5
sg16
I5093
sg17
I15
sg18
S'2018-01-03 18:31:00'
p877
sg20
S'2018-01-03 15:03:00'
p878
sg21
Nsg22
NssI239
(dp879
g2
S'0239'
p880
sg4
g5
sg6
Nsg7
g8
sg9
Nsg10
Nsg11
g12
sg13
I207
sg14
I15
sg308
I5
sg16
I2439
sg17
I17
sg18
S'2018-01-03 18:59:00'
p881
sg20
S'2018-01-03 15:32:00'
p882
sg21
Nsg22
NssI240
(dp883
g2
S'0240'
p884
sg4
g5
sg6
Nsg7
g8
sg9
Nsg10
Nsg11
g12
sg13
I193
sg14
I17
sg308
I5
sg16
I5518
sg17
I7
sg18
S'2018-01-03 19:02:00'
p885
sg20
S'2018-01-03 15:49:00'
p886
sg21
Nsg22
NssI241
(dp887
g2
S'0241'
p888
sg4
g25
sg6
Nsg7
g8
sg9
Nsg10
Nsg11
g12
sg13
I189
sg14
I7
sg308
I5
sg16
I4271
sg17
I17
sg18
S'2018-01-03 19:30:00'
p889
sg20
S'2018-01-03 16:21:00'
p890
sg21
Nsg22
NssI242
(dp891
g2
S'0242'
p892
sg4
g25
sg6
Nsg7
g8
sg9
Nsg10
Nsg11
g12
sg13
I160
sg14
I17
sg308
I5
sg16
I6187
sg17
I15
sg18
S'2018-01-03 19:33:00'
p893
sg20
S'2018-01-03 16:53:00'
p894
sg21
Nsg22
NssI243
(dp895
g2
S'0243'
p896
sg4
g25
sg6
Nsg7
g8
sg9
Nsg10
Nsg11
g12
sg13
I148
sg14
I15
sg308
I5
sg16
I4111
sg17
I14
sg18
S'2018-01-03 19:36:00'
p897
sg20
S'2018-01-03 17:08:00'
p898
sg21
Nsg22
NssI244
(dp899
g2
S'0244'
p900
sg4
g5
sg6
Nsg7
g8
sg9
Nsg10
Nsg11
g12
sg13
I174
sg14
I14
sg308
I5
sg16
I5729
sg17
I15
sg18
S'2018-01-03 20:04:00'
p901
sg20
S'2018-01-03 17:10:00'
p902
sg21
Nsg22
NssI245
(dp903
g2
S'0245'
p904
sg4
g25
sg6
Nsg7
g8
sg9
Nsg10
Nsg11
g12
sg13
I187
sg14
I15
sg308
I5
sg16
I1983
sg17
I18
sg18
S'2018-01-03 20:32:00'
p905
sg20
S'2018-01-03 17:25:00'
p906
sg21
Nsg22
NssI246
(dp907
g2
S'0246'
p908
sg4
g25
sg6
Nsg7
g8
sg9
Nsg10
Nsg11
g12
sg13
I172
sg14
I18
sg308
I5
sg16
I5983
sg17
I17
sg18
S'2018-01-03 20:35:00'
p909
sg20
S'2018-01-03 17:43:00'
p910
sg21
Nsg22
NssI247
(dp911
g2
S'0247'
p912
sg4
g25
sg6
Nsg7
g8
sg9
Nsg10
Nsg11
g12
sg13
I158
sg14
I17
sg308
I5
sg16
I6831
sg17
I15
sg18
S'2018-01-03 20:38:00'
p913
sg20
S'2018-01-03 18:00:00'
p914
sg21
Nsg22
NssI248
(dp915
g2
S'0248'
p916
sg4
g5
sg6
Nsg7
g8
sg9
Nsg10
Nsg11
g12
sg13
I171
sg14
I15
sg308
I5
sg16
I4462
sg17
I9
sg18
S'2018-01-03 21:06:00'
p917
sg20
S'2018-01-03 18:15:00'
p918
sg21
Nsg22
NssI249
(dp919
g2
S'0249'
p920
sg4
g5
sg6
Nsg7
g8
sg9
Nsg10
Nsg11
g12
sg13
I142
sg14
I9
sg308
I5
sg16
I4712
sg17
I15
sg18
S'2018-01-03 21:09:00'
p921
sg20
S'2018-01-03 18:47:00'
p922
sg21
Nsg22
NssI250
(dp923
g2
S'0250'
p924
sg4
g25
sg6
Nsg7
g8
sg9
Nsg10
Nsg11
g12
sg13
I138
sg14
I15
sg308
I5
sg16
I3348
sg17
I17
sg18
S'2018-01-03 21:37:00'
p925
sg20
S'2018-01-03 19:19:00'
p926
sg21
Nsg22
NssI251
(dp927
g2
S'0251'
p928
sg4
g5
sg6
Nsg7
g8
sg9
Nsg10
Nsg11
g12
sg13
I149
sg14
I17
sg308
I5
sg16
I4589
sg17
I17
sg18
S'2018-01-03 22:05:00'
p929
sg20
S'2018-01-03 19:36:00'
p930
sg21
Nsg22
NssI252
(dp931
g2
S'0252'
p932
sg4
g25
sg6
Nsg7
g8
sg9
Nsg10
Nsg11
g12
sg13
I160
sg14
I17
sg308
I5
sg16
I2273
sg17
I9
sg18
S'2018-01-03 22:33:00'
p933
sg20
S'2018-01-03 19:53:00'
p934
sg21
Nsg22
NssI253
(dp935
g2
S'0253'
p936
sg4
g25
sg6
Nsg7
g8
sg9
Nsg10
Nsg11
g12
sg13
I158
sg14
I9
sg308
I5
sg16
I1794
sg17
I17
sg18
S'2018-01-03 22:36:00'
p937
sg20
S'2018-01-03 19:58:00'
p938
sg21
Nsg22
NssI254
(dp939
g2
S'0254'
p940
sg4
g5
sg6
Nsg7
g8
sg9
Nsg10
Nsg11
g12
sg13
I181
sg14
I17
sg308
I5
sg16
I4004
sg17
I21
sg18
S'2018-01-03 23:04:00'
p941
sg20
S'2018-01-03 20:03:00'
p942
sg21
Nsg22
NssI255
(dp943
g2
S'0255'
p944
sg4
g25
sg6
Nsg7
g8
sg9
Nsg10
Nsg11
g12
sg13
I188
sg14
I21
sg308
I5
sg16
I5927
sg17
I14
sg18
S'2018-01-03 23:32:00'
p945
sg20
S'2018-01-03 20:24:00'
p946
sg21
Nsg22
NssI256
(dp947
g2
S'0256'
p948
sg4
g25
sg6
Nsg7
g8
sg9
Nsg10
Nsg11
g12
sg13
I177
sg14
I14
sg308
I5
sg16
I3814
sg17
I14
sg18
S'2018-01-03 23:35:00'
p949
sg20
S'2018-01-03 20:38:00'
p950
sg21
Nsg22
NssI257
(dp951
g2
S'0257'
p952
sg4
g25
sg6
Nsg7
g8
sg9
Nsg10
Nsg11
g12
sg13
I166
sg14
I14
sg308
I5
sg16
I4274
sg17
I11
sg18
S'2018-01-03 23:38:00'
p953
sg20
S'2018-01-03 20:52:00'
p954
sg21
Nsg22
NssI258
(dp955
g2
S'0258'
p956
sg4
g5
sg6
Nsg7
g8
sg9
Nsg10
Nsg11
g12
sg13
I163
sg14
I11
sg308
I5
sg16
I3410
sg17
I16
sg18
S'2018-01-04 00:06:00'
p957
sg20
S'2018-01-03 21:23:00'
p958
sg21
Nsg22
NssI259
(dp959
g2
S'0259'
p960
sg4
g25
sg6
Nsg7
g8
sg9
Nsg10
Nsg11
g12
sg13
I162
sg14
I16
sg308
I5
sg16
I5649
sg17
I20
sg18
S'2018-01-04 00:34:00'
p961
sg20
S'2018-01-03 21:52:00'
p962
sg21
Nsg22
NssI260
(dp963
g2
S'0260'
p964
sg4
g25
sg6
Nsg7
g8
sg9
Nsg10
Nsg11
g12
sg13
I145
sg14
I20
sg308
I5
sg16
I7708
sg17
I11
sg18
S'2018-01-04 00:37:00'
p965
sg20
S'2018-01-03 22:12:00'
p966
sg21
Nsg22
NssI261
(dp967
g2
S'0261'
p968
sg4
g5
sg6
Nsg7
g8
sg9
Nsg10
Nsg11
g12
sg13
I162
sg14
I11
sg308
I5
sg16
I7123
sg17
I15
sg18
S'2018-01-04 01:05:00'
p969
sg20
S'2018-01-03 22:23:00'
p970
sg21
Nsg22
NssI262
(dp971
g2
S'0262'
p972
sg4
g25
sg6
Nsg7
g8
sg9
Nsg10
Nsg11
g12
sg13
I185
sg14
I15
sg308
I5
sg16
I4898
sg17
I12
sg18
S'2018-01-04 01:33:00'
p973
sg20
S'2018-01-03 22:28:00'
p974
sg21
Nsg22
NssI263
(dp975
g2
S'0263'
p976
sg4
g5
sg6
Nsg7
g8
sg9
Nsg10
Nsg11
g12
sg13
I184
sg14
I12
sg308
I5
sg16
I5158
sg17
I15
sg18
S'2018-01-04 02:01:00'
p977
sg20
S'2018-01-03 22:57:00'
p978
sg21
Nsg22
NssI264
(dp979
g2
S'0264'
p980
sg4
g5
sg6
Nsg7
g8
sg9
Nsg10
Nsg11
g12
sg13
I158
sg14
I15
sg308
I5
sg16
I6097
sg17
I11
sg18
S'2018-01-04 02:04:00'
p981
sg20
S'2018-01-03 23:26:00'
p982
sg21
Nsg22
NssI265
(dp983
g2
S'0265'
p984
sg4
g25
sg6
Nsg7
g8
sg9
Nsg10
Nsg11
g12
sg13
I181
sg14
I11
sg308
I5
sg16
I1856
sg17
I12
sg18
S'2018-01-04 02:32:00'
p985
sg20
S'2018-01-03 23:31:00'
p986
sg21
Nsg22
NssI266
(dp987
g2
S'0266'
p988
sg4
g5
sg6
Nsg7
g8
sg9
Nsg10
Nsg11
g12
sg13
I176
sg14
I12
sg308
I5
sg16
I6804
sg17
I16
sg18
S'2018-01-04 03:00:00'
p989
sg20
S'2018-01-04 00:04:00'
p990
sg21
Nsg22
NssI267
(dp991
g2
S'0267'
p992
sg4
g5
sg6
Nsg7
g8
sg9
Nsg10
Nsg11
g12
sg13
I176
sg14
I16
sg308
I5
sg16
I4909
sg17
I10
sg18
S'2018-01-04 03:03:00'
p993
sg20
S'2018-01-04 00:07:00'
p994
sg21
Nsg22
NssI268
(dp995
g2
S'0268'
p996
sg4
g25
sg6
Nsg7
g8
sg9
Nsg10
Nsg11
g12
sg13
I199
sg14
I10
sg308
I5
sg16
I6333
sg17
I6
sg18
S'2018-01-04 03:31:00'
p997
sg20
S'2018-01-04 00:12:00'
p998
sg21
Nsg22
NssI269
(dp999
g2
S'0269'
p1000
sg4
g5
sg6
Nsg7
g8
sg9
Nsg10
Nsg11
g12
sg13
I187
sg14
I6
sg308
I5
sg16
I3733
sg17
I11
sg18
S'2018-01-04 03:59:00'
p1001
sg20
S'2018-01-04 00:52:00'
p1002
sg21
Nsg22
NssI270
(dp1003
g2
S'0270'
p1004
sg4
g5
sg6
Nsg7
g8
sg9
Nsg10
Nsg11
g12
sg13
I151
sg14
I11
sg308
I5
sg16
I5808
sg17
I15
sg18
S'2018-01-04 04:02:00'
p1005
sg20
S'2018-01-04 01:31:00'
p1006
sg21
Nsg22
NssI271
(dp1007
g2
S'0271'
p1008
sg4
g25
sg6
Nsg7
g8
sg9
Nsg10
Nsg11
g12
sg13
I149
sg14
I15
sg308
I5
sg16
I5298
sg17
I18
sg18
S'2018-01-04 04:30:00'
p1009
sg20
S'2018-01-04 02:01:00'
p1010
sg21
Nsg22
NssI272
(dp1011
g2
S'0272'
p1012
sg4
g25
sg6
Nsg7
g8
sg9
Nsg10
Nsg11
g12
sg13
I134
sg14
I18
sg308
I5
sg16
I3730
sg17
I14
sg18
S'2018-01-04 04:33:00'
p1013
sg20
S'2018-01-04 02:19:00'
p1014
sg21
Nsg22
NssI273
(dp1015
g2
S'0273'
p1016
sg4
g5
sg6
Nsg7
g8
sg9
Nsg10
Nsg11
g12
sg13
I148
sg14
I14
sg308
I5
sg16
I5754
sg17
I13
sg18
S'2018-01-04 05:01:00'
p1017
sg20
S'2018-01-04 02:33:00'
p1018
sg21
Nsg22
NssI274
(dp1019
g2
S'0274'
p1020
sg4
g25
sg6
Nsg7
g8
sg9
Nsg10
Nsg11
g12
sg13
I172
sg14
I13
sg308
I5
sg16
I7631
sg17
I14
sg18
S'2018-01-04 05:29:00'
p1021
sg20
S'2018-01-04 02:37:00'
p1022
sg21
Nsg22
NssI275
(dp1023
g2
S'0275'
p1024
sg4
g5
sg6
Nsg7
g8
sg9
Nsg10
Nsg11
g12
sg13
I196
sg14
I14
sg308
I5
sg16
I6574
sg17
I16
sg18
S'2018-01-04 05:57:00'
p1025
sg20
S'2018-01-04 02:41:00'
p1026
sg21
Nsg22
NssI276
(dp1027
g2
S'0276'
p1028
sg4
g25
sg6
Nsg7
g8
sg9
Nsg10
Nsg11
g12
sg13
I208
sg14
I16
sg308
I5
sg16
I3728
sg17
I18
sg18
S'2018-01-04 06:25:00'
p1029
sg20
S'2018-01-04 02:57:00'
p1030
sg21
Nsg22
NssI277
(dp1031
g2
S'0277'
p1032
sg4
g25
sg6
Nsg7
g8
sg9
Nsg10
Nsg11
g12
sg13
I193
sg14
I18
sg308
I5
sg16
I2933
sg17
I13
sg18
S'2018-01-04 06:28:00'
p1033
sg20
S'2018-01-04 03:15:00'
p1034
sg21
Nsg22
NssI278
(dp1035
g2
S'0278'
p1036
sg4
g5
sg6
Nsg7
g8
sg9
Nsg10
Nsg11
g12
sg13
I208
sg14
I13
sg308
I5
sg16
I5612
sg17
I16
sg18
S'2018-01-04 06:56:00'
p1037
sg20
S'2018-01-04 03:28:00'
p1038
sg21
Nsg22
NssI279
(dp1039
g2
S'0279'
p1040
sg4
g5
sg6
Nsg7
g8
sg9
Nsg10
Nsg11
g12
sg13
I195
sg14
I16
sg308
I5
sg16
I8743
sg17
I16
sg18
S'2018-01-04 06:59:00'
p1041
sg20
S'2018-01-04 03:44:00'
p1042
sg21
Nsg22
NssI280
(dp1043
g2
S'0280'
p1044
sg4
g5
sg6
Nsg7
g8
sg9
Nsg10
Nsg11
g12
sg13
I182
sg14
I16
sg308
I5
sg16
I3098
sg17
I14
sg18
S'2018-01-04 07:02:00'
p1045
sg20
S'2018-01-04 04:00:00'
p1046
sg21
Nsg22
NssI281
(dp1047
g2
S'0281'
p1048
sg4
g25
sg6
Nsg7
g8
sg9
Nsg10
Nsg11
g12
sg13
I209
sg14
I14
sg308
I5
sg16
I2447
sg17
I14
sg18
S'2018-01-04 07:30:00'
p1049
sg20
S'2018-01-04 04:01:00'
p1050
sg21
Nsg22
NssI282
(dp1051
g2
S'0282'
p1052
sg4
g5
sg6
Nsg7
g8
sg9
Nsg10
Nsg11
g12
sg13
I234
sg14
I14
sg308
I5
sg16
I5942
sg17
I17
sg18
S'2018-01-04 07:58:00'
p1053
sg20
S'2018-01-04 04:04:00'
p1054
sg21
Nsg22
NssI283
(dp1055
g2
S'0283'
p1056
sg4
g25
sg6
Nsg7
g8
sg9
Nsg10
Nsg11
g12
sg13
I245
sg14
I17
sg308
I5
sg16
I4473
sg17
I11
sg18
S'2018-01-04 08:26:00'
p1057
sg20
S'2018-01-04 04:21:00'
p1058
sg21
Nsg22
NssI284
(dp1059
g2
S'0284'
p1060
sg4
g25
sg6
Nsg7
g8
sg9
Nsg10
Nsg11
g12
sg13
I237
sg14
I11
sg308
I5
sg16
I3555
sg17
I18
sg18
S'2018-01-04 08:29:00'
p1061
sg20
S'2018-01-04 04:32:00'
p1062
sg21
Nsg22
NssI285
(dp1063
g2
S'0285'
p1064
sg4
g25
sg6
Nsg7
g8
sg9
Nsg10
Nsg11
g12
sg13
I238
sg14
I18
sg308
I5
sg16
I4062
sg17
I17
sg18
S'2018-01-04 08:32:00'
p1065
sg20
S'2018-01-04 04:34:00'
p1066
sg21
Nsg22
NssI286
(dp1067
g2
S'0286'
p1068
sg4
g5
sg6
Nsg7
g8
sg9
Nsg10
Nsg11
g12
sg13
I249
sg14
I17
sg308
I5
sg16
I6095
sg17
I16
sg18
S'2018-01-04 09:00:00'
p1069
sg20
S'2018-01-04 04:51:00'
p1070
sg21
Nsg22
NssI287
(dp1071
g2
S'0287'
p1072
sg4
g25
sg6
Nsg7
g8
sg9
Nsg10
Nsg11
g12
sg13
I261
sg14
I16
sg308
I5
sg16
I8240
sg17
I11
sg18
S'2018-01-04 09:28:00'
p1073
sg20
S'2018-01-04 05:07:00'
p1074
sg21
Nsg22
NssI288
(dp1075
g2
S'0288'
p1076
sg4
g5
sg6
Nsg7
g8
sg9
Nsg10
Nsg11
g12
sg13
I260
sg14
I11
sg308
I5
sg16
I4299
sg17
I12
sg18
S'2018-01-04 09:56:00'
p1077
sg20
S'2018-01-04 05:36:00'
p1078
sg21
Nsg22
NssI289
(dp1079
g2
S'0289'
p1080
sg4
g25
sg6
Nsg7
g8
sg9
Nsg10
Nsg11
g12
sg13
I280
sg14
I12
sg308
I5
sg16
I4902
sg17
I17
sg18
S'2018-01-04 10:24:00'
p1081
sg20
S'2018-01-04 05:44:00'
p1082
sg21
Nsg22
NssI290
(dp1083
g2
S'0290'
p1084
sg4
g25
sg6
Nsg7
g8
sg9
Nsg10
Nsg11
g12
sg13
I281
sg14
I17
sg308
I5
sg16
I6438
sg17
I16
sg18
S'2018-01-04 10:27:00'
p1085
sg20
S'2018-01-04 05:46:00'
p1086
sg21
Nsg22
NssI291
(dp1087
g2
S'0291'
p1088
sg4
g5
sg6
Nsg7
g8
sg9
Nsg10
Nsg11
g12
sg13
I293
sg14
I16
sg308
I5
sg16
I4919
sg17
I17
sg18
S'2018-01-04 10:55:00'
p1089
sg20
S'2018-01-04 06:02:00'
p1090
sg21
Nsg22
NssI292
(dp1091
g2
S'0292'
p1092
sg4
g25
sg6
Nsg7
g8
sg9
Nsg10
Nsg11
g12
sg13
I304
sg14
I17
sg308
I5
sg16
I5085
sg17
I13
sg18
S'2018-01-04 11:23:00'
p1093
sg20
S'2018-01-04 06:19:00'
p1094
sg21
Nsg22
NssI293
(dp1095
g2
S'0293'
p1096
sg4
g25
sg6
Nsg7
g8
sg9
Nsg10
Nsg11
g12
sg13
I294
sg14
I13
sg308
I5
sg16
I3828
sg17
I22
sg18
S'2018-01-04 11:26:00'
p1097
sg20
S'2018-01-04 06:32:00'
p1098
sg21
Nsg22
NssI294
(dp1099
g2
S'0294'
p1100
sg4
g5
sg6
Nsg7
g8
sg9
Nsg10
Nsg11
g12
sg13
I300
sg14
I22
sg308
I5
sg16
I2286
sg17
I11
sg18
S'2018-01-04 11:54:00'
p1101
sg20
S'2018-01-04 06:54:00'
p1102
sg21
Nsg22
NssI295
(dp1103
g2
S'0295'
p1104
sg4
g25
sg6
Nsg7
g8
sg9
Nsg10
Nsg11
g12
sg13
I317
sg14
I11
sg308
I5
sg16
I6240
sg17
I15
sg18
S'2018-01-04 12:22:00'
p1105
sg20
S'2018-01-04 07:05:00'
p1106
sg21
Nsg22
NssI296
(dp1107
g2
S'0296'
p1108
sg4
g25
sg6
Nsg7
g8
sg9
Nsg10
Nsg11
g12
sg13
I315
sg14
I15
sg308
I5
sg16
I6225
sg17
I10
sg18
S'2018-01-04 12:25:00'
p1109
sg20
S'2018-01-04 07:10:00'
p1110
sg21
Nsg22
NssI297
(dp1111
g2
S'0297'
p1112
sg4
g25
sg6
Nsg7
g8
sg9
Nsg10
Nsg11
g12
sg13
I287
sg14
I10
sg308
I5
sg16
I3298
sg17
I16
sg18
S'2018-01-04 12:28:00'
p1113
sg20
S'2018-01-04 07:41:00'
p1114
sg21
Nsg22
NssI298
(dp1115
g2
S'0298'
p1116
sg4
g5
sg6
Nsg7
g8
sg9
Nsg10
Nsg11
g12
sg13
I285
sg14
I16
sg308
I5
sg16
I2505
sg17
I14
sg18
S'2018-01-04 12:56:00'
p1117
sg20
S'2018-01-04 08:11:00'
p1118
sg21
Nsg22
NssI299
(dp1119
g2
S'0299'
p1120
sg4
g5
sg6
Nsg7
g8
sg9
Nsg10
Nsg11
g12
sg13
I287
sg14
I14
sg308
I5
sg16
I4003
sg17
I11
sg18
S'2018-01-04 12:59:00'
p1121
sg20
S'2018-01-04 08:12:00'
p1122
sg21
Nsg22
NssI300
(dp1123
g2
S'0300'
p1124
sg4
g5
sg6
Nsg7
g8
sg9
Nsg10
Nsg11
g12
sg13
I259
sg14
I11
sg308
I5
sg16
I5265
sg17
I19
sg18
S'2018-01-04 13:02:00'
p1125
sg20
S'2018-01-04 08:43:00'
p1126
sg21
Nsg22
NssI301
(dp1127
g2
S'0301'
p1128
sg4
g25
sg6
Nsg7
g8
sg9
Nsg10
Nsg11
g12
sg13
I286
sg14
I19
sg308
I5
sg16
I6141
sg17
I9
sg18
S'2018-01-04 13:30:00'
p1129
sg20
S'2018-01-04 08:44:00'
p1130
sg21
Nsg22
NssI302
(dp1131
g2
S'0302'
p1132
sg4
g25
sg6
Nsg7
g8
sg9
Nsg10
Nsg11
g12
sg13
I280
sg14
I9
sg308
I5
sg16
I5327
sg17
I16
sg18
S'2018-01-04 13:33:00'
p1133
sg20
S'2018-01-04 08:53:00'
p1134
sg21
Nsg22
NssI303
(dp1135
g2
S'0303'
p1136
sg4
g25
sg6
Nsg7
g8
sg9
Nsg10
Nsg11
g12
sg13
I277
sg14
I16
sg308
I5
sg16
I6644
sg17
I15
sg18
S'2018-01-04 13:36:00'
p1137
sg20
S'2018-01-04 08:59:00'
p1138
sg21
Nsg22
NssI304
(dp1139
g2
S'0304'
p1140
sg4
g25
sg6
Nsg7
g8
sg9
Nsg10
Nsg11
g12
sg13
I265
sg14
I15
sg308
I5
sg16
I5788
sg17
I9
sg18
S'2018-01-04 13:39:00'
p1141
sg20
S'2018-01-04 09:14:00'
p1142
sg21
Nsg22
NssI305
(dp1143
g2
S'0305'
p1144
sg4
g5
sg6
Nsg7
g8
sg9
Nsg10
Nsg11
g12
sg13
I261
sg14
I9
sg308
I5
sg16
I4089
sg17
I13
sg18
S'2018-01-04 14:07:00'
p1145
sg20
S'2018-01-04 09:46:00'
p1146
sg21
Nsg22
NssI306
(dp1147
g2
S'0306'
p1148
sg4
g5
sg6
Nsg7
g8
sg9
Nsg10
Nsg11
g12
sg13
I230
sg14
I13
sg308
I5
sg16
I7097
sg17
I16
sg18
S'2018-01-04 14:10:00'
p1149
sg20
S'2018-01-04 10:20:00'
p1150
sg21
Nsg22
NssI307
(dp1151
g2
S'0307'
p1152
sg4
g25
sg6
Nsg7
g8
sg9
Nsg10
Nsg11
g12
sg13
I256
sg14
I16
sg308
I5
sg16
I4956
sg17
I13
sg18
S'2018-01-04 14:38:00'
p1153
sg20
S'2018-01-04 10:22:00'
p1154
sg21
Nsg22
NssI308
(dp1155
g2
S'0308'
p1156
sg4
g25
sg6
Nsg7
g8
sg9
Nsg10
Nsg11
g12
sg13
I257
sg14
I13
sg308
I5
sg16
I5113
sg17
I17
sg18
S'2018-01-04 14:41:00'
p1157
sg20
S'2018-01-04 10:24:00'
p1158
sg21
Nsg22
NssI309
(dp1159
g2
S'0309'
p1160
sg4
g5
sg6
Nsg7
g8
sg9
Nsg10
Nsg11
g12
sg13
I284
sg14
I17
sg308
I5
sg16
I5269
sg17
I9
sg18
S'2018-01-04 15:09:00'
p1161
sg20
S'2018-01-04 10:25:00'
p1162
sg21
Nsg22
NssI310
(dp1163
g2
S'0310'
p1164
sg4
g5
sg6
Nsg7
g8
sg9
Nsg10
Nsg11
g12
sg13
I257
sg14
I9
sg308
I5
sg16
I3150
sg17
I14
sg18
S'2018-01-04 15:12:00'
p1165
sg20
S'2018-01-04 10:55:00'
p1166
sg21
Nsg22
NssI311
(dp1167
g2
S'0311'
p1168
sg4
g25
sg6
Nsg7
g8
sg9
Nsg10
Nsg11
g12
sg13
I252
sg14
I14
sg308
I5
sg16
I5307
sg17
I17
sg18
S'2018-01-04 15:40:00'
p1169
sg20
S'2018-01-04 11:28:00'
p1170
sg21
Nsg22
NssI312
(dp1171
g2
S'0312'
p1172
sg4
g5
sg6
Nsg7
g8
sg9
Nsg10
Nsg11
g12
sg13
I263
sg14
I17
sg308
I5
sg16
I3955
sg17
I7
sg18
S'2018-01-04 16:08:00'
p1173
sg20
S'2018-01-04 11:45:00'
p1174
sg21
Nsg22
NssI313
(dp1175
g2
S'0313'
p1176
sg4
g25
sg6
Nsg7
g8
sg9
Nsg10
Nsg11
g12
sg13
I259
sg14
I7
sg308
I5
sg16
I4799
sg17
I10
sg18
S'2018-01-04 16:36:00'
p1177
sg20
S'2018-01-04 12:17:00'
p1178
sg21
Nsg22
NssI314
(dp1179
g2
S'0314'
p1180
sg4
g5
sg6
Nsg7
g8
sg9
Nsg10
Nsg11
g12
sg13
I273
sg14
I10
sg308
I5
sg16
I3102
sg17
I15
sg18
S'2018-01-04 17:04:00'
p1181
sg20
S'2018-01-04 12:31:00'
p1182
sg21
Nsg22
NssI315
(dp1183
g2
S'0315'
p1184
sg4
g5
sg6
Nsg7
g8
sg9
Nsg10
Nsg11
g12
sg13
I270
sg14
I15
sg308
I5
sg16
I5039
sg17
I16
sg18
S'2018-01-04 17:07:00'
p1185
sg20
S'2018-01-04 12:37:00'
p1186
sg21
Nsg22
NssI316
(dp1187
g2
S'0316'
p1188
sg4
g5
sg6
Nsg7
g8
sg9
Nsg10
Nsg11
g12
sg13
I257
sg14
I16
sg308
I5
sg16
I3939
sg17
I17
sg18
S'2018-01-04 17:10:00'
p1189
sg20
S'2018-01-04 12:53:00'
p1190
sg21
Nsg22
NssI317
(dp1191
g2
S'0317'
p1192
sg4
g5
sg6
Nsg7
g8
sg9
Nsg10
Nsg11
g12
sg13
I243
sg14
I17
sg308
I5
sg16
I4862
sg17
I17
sg18
S'2018-01-04 17:13:00'
p1193
sg20
S'2018-01-04 13:10:00'
p1194
sg21
Nsg22
NssI318
(dp1195
g2
S'0318'
p1196
sg4
g5
sg6
Nsg7
g8
sg9
Nsg10
Nsg11
g12
sg13
I229
sg14
I17
sg308
I5
sg16
I4281
sg17
I13
sg18
S'2018-01-04 17:16:00'
p1197
sg20
S'2018-01-04 13:27:00'
p1198
sg21
Nsg22
NssI319
(dp1199
g2
S'0319'
p1200
sg4
g5
sg6
Nsg7
g8
sg9
Nsg10
Nsg11
g12
sg13
I219
sg14
I13
sg308
I5
sg16
I5477
sg17
I12
sg18
S'2018-01-04 17:19:00'
p1201
sg20
S'2018-01-04 13:40:00'
p1202
sg21
Nsg22
NssI320
(dp1203
g2
S'0320'
p1204
sg4
g25
sg6
Nsg7
g8
sg9
Nsg10
Nsg11
g12
sg13
I241
sg14
I12
sg308
I5
sg16
I5309
sg17
I12
sg18
S'2018-01-04 17:47:00'
p1205
sg20
S'2018-01-04 13:46:00'
p1206
sg21
Nsg22
NssI321
(dp1207
g2
S'0321'
p1208
sg4
g25
sg6
Nsg7
g8
sg9
Nsg10
Nsg11
g12
sg13
I212
sg14
I12
sg308
I5
sg16
I5835
sg17
I18
sg18
S'2018-01-04 17:50:00'
p1209
sg20
S'2018-01-04 14:18:00'
p1210
sg21
Nsg22
NssI322
(dp1211
g2
S'0322'
p1212
sg4
g25
sg6
Nsg7
g8
sg9
Nsg10
Nsg11
g12
sg13
I197
sg14
I18
sg308
I5
sg16
I6416
sg17
I14
sg18
S'2018-01-04 17:53:00'
p1213
sg20
S'2018-01-04 14:36:00'
p1214
sg21
Nsg22
NssI323
(dp1215
g2
S'0323'
p1216
sg4
g25
sg6
Nsg7
g8
sg9
Nsg10
Nsg11
g12
sg13
I186
sg14
I14
sg308
I5
sg16
I5028
sg17
I14
sg18
S'2018-01-04 17:56:00'
p1217
sg20
S'2018-01-04 14:50:00'
p1218
sg21
Nsg22
NssI324
(dp1219
g2
S'0324'
p1220
sg4
g25
sg6
Nsg7
g8
sg9
Nsg10
Nsg11
g12
sg13
I175
sg14
I14
sg308
I5
sg16
I6043
sg17
I12
sg18
S'2018-01-04 17:59:00'
p1221
sg20
S'2018-01-04 15:04:00'
p1222
sg21
Nsg22
NssI325
(dp1223
g2
S'0325'
p1224
sg4
g25
sg6
Nsg7
g8
sg9
Nsg10
Nsg11
g12
sg13
I148
sg14
I12
sg308
I5
sg16
I3451
sg17
I15
sg18
S'2018-01-04 18:02:00'
p1225
sg20
S'2018-01-04 15:34:00'
p1226
sg21
Nsg22
NssI326
(dp1227
g2
S'0326'
p1228
sg4
g5
sg6
Nsg7
g8
sg9
Nsg10
Nsg11
g12
sg13
I172
sg14
I15
sg308
I5
sg16
I6497
sg17
I11
sg18
S'2018-01-04 18:30:00'
p1229
sg20
S'2018-01-04 15:38:00'
p1230
sg21
Nsg22
NssI327
(dp1231
g2
S'0327'
p1232
sg4
g5
sg6
Nsg7
g8
sg9
Nsg10
Nsg11
g12
sg13
I170
sg14
I11
sg308
I5
sg16
I3337
sg17
I15
sg18
S'2018-01-04 18:33:00'
p1233
sg20
S'2018-01-04 15:43:00'
p1234
sg21
Nsg22
NssI328
(dp1235
g2
S'0328'
p1236
sg4
g25
sg6
Nsg7
g8
sg9
Nsg10
Nsg11
g12
sg13
I193
sg14
I15
sg308
I5
sg16
I5361
sg17
I17
sg18
S'2018-01-04 19:01:00'
p1237
sg20
S'2018-01-04 15:48:00'
p1238
sg21
Nsg22
NssI329
(dp1239
g2
S'0329'
p1240
sg4
g25
sg6
Nsg7
g8
sg9
Nsg10
Nsg11
g12
sg13
I179
sg14
I17
sg308
I5
sg16
I5354
sg17
I18
sg18
S'2018-01-04 19:04:00'
p1241
sg20
S'2018-01-04 16:05:00'
p1242
sg21
Nsg22
NssI330
(dp1243
g2
S'0330'
p1244
sg4
g25
sg6
Nsg7
g8
sg9
Nsg10
Nsg11
g12
sg13
I164
sg14
I18
sg308
I5
sg16
I7074
sg17
I15
sg18
S'2018-01-04 19:07:00'
p1245
sg20
S'2018-01-04 16:23:00'
p1246
sg21
Nsg22
NssI331
(dp1247
g2
S'0331'
p1248
sg4
g25
sg6
Nsg7
g8
sg9
Nsg10
Nsg11
g12
sg13
I152
sg14
I15
sg308
I5
sg16
I5001
sg17
I15
sg18
S'2018-01-04 19:10:00'
p1249
sg20
S'2018-01-04 16:38:00'
p1250
sg21
Nsg22
NssI332
(dp1251
g2
S'0332'
p1252
sg4
g5
sg6
Nsg7
g8
sg9
Nsg10
Nsg11
g12
sg13
I165
sg14
I15
sg308
I5
sg16
I3781
sg17
I13
sg18
S'2018-01-04 19:38:00'
p1253
sg20
S'2018-01-04 16:53:00'
p1254
sg21
Nsg22
NssI333
(dp1255
g2
S'0333'
p1256
sg4
g25
sg6
Nsg7
g8
sg9
Nsg10
Nsg11
g12
sg13
I180
sg14
I13
sg308
I5
sg16
I3836
sg17
I15
sg18
S'2018-01-04 20:06:00'
p1257
sg20
S'2018-01-04 17:06:00'
p1258
sg21
Nsg22
NssI334
(dp1259
g2
S'0334'
p1260
sg4
g5
sg6
Nsg7
g8
sg9
Nsg10
Nsg11
g12
sg13
I205
sg14
I15
sg308
I5
sg16
I7370
sg17
I19
sg18
S'2018-01-04 20:34:00'
p1261
sg20
S'2018-01-04 17:09:00'
p1262
sg21
Nsg22
NssI335
(dp1263
g2
S'0335'
p1264
sg4
g25
sg6
Nsg7
g8
sg9
Nsg10
Nsg11
g12
sg13
I214
sg14
I19
sg308
I5
sg16
I6536
sg17
I20
sg18
S'2018-01-04 21:02:00'
p1265
sg20
S'2018-01-04 17:28:00'
p1266
sg21
Nsg22
NssI336
(dp1267
g2
S'0336'
p1268
sg4
g5
sg6
Nsg7
g8
sg9
Nsg10
Nsg11
g12
sg13
I222
sg14
I20
sg308
I5
sg16
I5708
sg17
I13
sg18
S'2018-01-04 21:30:00'
p1269
sg20
S'2018-01-04 17:48:00'
p1270
sg21
Nsg22
NssI337
(dp1271
g2
S'0337'
p1272
sg4
g25
sg6
Nsg7
g8
sg9
Nsg10
Nsg11
g12
sg13
I237
sg14
I13
sg308
I5
sg16
I6597
sg17
I14
sg18
S'2018-01-04 21:58:00'
p1273
sg20
S'2018-01-04 18:01:00'
p1274
sg21
Nsg22
NssI338
(dp1275
g2
S'0338'
p1276
sg4
g25
sg6
Nsg7
g8
sg9
Nsg10
Nsg11
g12
sg13
I236
sg14
I14
sg308
I5
sg16
I6281
sg17
I13
sg18
S'2018-01-04 22:01:00'
p1277
sg20
S'2018-01-04 18:05:00'
p1278
sg21
Nsg22
NssI339
(dp1279
g2
S'0339'
p1280
sg4
g5
sg6
Nsg7
g8
sg9
Nsg10
Nsg11
g12
sg13
I260
sg14
I13
sg308
I5
sg16
I3723
sg17
I17
sg18
S'2018-01-04 22:29:00'
p1281
sg20
S'2018-01-04 18:09:00'
p1282
sg21
Nsg22
NssI340
(dp1283
g2
S'0340'
p1284
sg4
g25
sg6
Nsg7
g8
sg9
Nsg10
Nsg11
g12
sg13
I271
sg14
I17
sg308
I5
sg16
I5008
sg17
I19
sg18
S'2018-01-04 22:57:00'
p1285
sg20
S'2018-01-04 18:26:00'
p1286
sg21
Nsg22
NssI341
(dp1287
g2
S'0341'
p1288
sg4
g25
sg6
Nsg7
g8
sg9
Nsg10
Nsg11
g12
sg13
I255
sg14
I19
sg308
I5
sg16
I4286
sg17
I13
sg18
S'2018-01-04 23:00:00'
p1289
sg20
S'2018-01-04 18:45:00'
p1290
sg21
Nsg22
NssI342
(dp1291
g2
S'0342'
p1292
sg4
g5
sg6
Nsg7
g8
sg9
Nsg10
Nsg11
g12
sg13
I270
sg14
I13
sg308
I5
sg16
I2971
sg17
I15
sg18
S'2018-01-04 23:28:00'
p1293
sg20
S'2018-01-04 18:58:00'
p1294
sg21
Nsg22
NssI343
(dp1295
g2
S'0343'
p1296
sg4
g25
sg6
Nsg7
g8
sg9
Nsg10
Nsg11
g12
sg13
I295
sg14
I15
sg308
I5
sg16
I2991
sg17
I12
sg18
S'2018-01-04 23:56:00'
p1297
sg20
S'2018-01-04 19:01:00'
p1298
sg21
Nsg22
NssI344
(dp1299
g2
S'0344'
p1300
sg4
g5
sg6
Nsg7
g8
sg9
Nsg10
Nsg11
g12
sg13
I294
sg14
I12
sg308
I5
sg16
I7159
sg17
I18
sg18
S'2018-01-05 00:24:00'
p1301
sg20
S'2018-01-04 19:30:00'
p1302
sg21
Nsg22
NssI345
(dp1303
g2
S'0345'
p1304
sg4
g25
sg6
Nsg7
g8
sg9
Nsg10
Nsg11
g12
sg13
I304
sg14
I18
sg308
I5
sg16
I6504
sg17
I15
sg18
S'2018-01-05 00:52:00'
p1305
sg20
S'2018-01-04 19:48:00'
p1306
sg21
Nsg22
NssI346
(dp1307
g2
S'0346'
p1308
sg4
g5
sg6
Nsg7
g8
sg9
Nsg10
Nsg11
g12
sg13
I317
sg14
I15
sg308
I5
sg16
I3269
sg17
I16
sg18
S'2018-01-05 01:20:00'
p1309
sg20
S'2018-01-04 20:03:00'
p1310
sg21
Nsg22
NssI347
(dp1311
g2
S'0347'
p1312
sg4
g5
sg6
Nsg7
g8
sg9
Nsg10
Nsg11
g12
sg13
I304
sg14
I16
sg308
I5
sg16
I4651
sg17
I16
sg18
S'2018-01-05 01:23:00'
p1313
sg20
S'2018-01-04 20:19:00'
p1314
sg21
Nsg22
NssI348
(dp1315
g2
S'0348'
p1316
sg4
g5
sg6
Nsg7
g8
sg9
Nsg10
Nsg11
g12
sg13
I291
sg14
I16
sg308
I5
sg16
I5345
sg17
I18
sg18
S'2018-01-05 01:26:00'
p1317
sg20
S'2018-01-04 20:35:00'
p1318
sg21
Nsg22
NssI349
(dp1319
g2
S'0349'
p1320
sg4
g5
sg6
Nsg7
g8
sg9
Nsg10
Nsg11
g12
sg13
I276
sg14
I18
sg308
I5
sg16
I3592
sg17
I14
sg18
S'2018-01-05 01:29:00'
p1321
sg20
S'2018-01-04 20:53:00'
p1322
sg21
Nsg22
NssI350
(dp1323
g2
S'0350'
p1324
sg4
g25
sg6
Nsg7
g8
sg9
Nsg10
Nsg11
g12
sg13
I290
sg14
I14
sg308
I5
sg16
I6846
sg17
I17
sg18
S'2018-01-05 01:57:00'
p1325
sg20
S'2018-01-04 21:07:00'
p1326
sg21
Nsg22
NssI351
(dp1327
g2
S'0351'
p1328
sg4
g5
sg6
Nsg7
g8
sg9
Nsg10
Nsg11
g12
sg13
I301
sg14
I17
sg308
I5
sg16
I4943
sg17
I19
sg18
S'2018-01-05 02:25:00'
p1329
sg20
S'2018-01-04 21:24:00'
p1330
sg21
Nsg22
NssI352
(dp1331
g2
S'0352'
p1332
sg4
g25
sg6
Nsg7
g8
sg9
Nsg10
Nsg11
g12
sg13
I310
sg14
I19
sg308
I5
sg16
I6122
sg17
I14
sg18
S'2018-01-05 02:53:00'
p1333
sg20
S'2018-01-04 21:43:00'
p1334
sg21
Nsg22
NssI353
(dp1335
g2
S'0353'
p1336
sg4
g5
sg6
Nsg7
g8
sg9
Nsg10
Nsg11
g12
sg13
I324
sg14
I14
sg308
I5
sg16
I3890
sg17
I17
sg18
S'2018-01-05 03:21:00'
p1337
sg20
S'2018-01-04 21:57:00'
p1338
sg21
Nsg22
NssI354
(dp1339
g2
S'0354'
p1340
sg4
g5
sg6
Nsg7
g8
sg9
Nsg10
Nsg11
g12
sg13
I310
sg14
I17
sg308
I5
sg16
I4144
sg17
I14
sg18
S'2018-01-05 03:24:00'
p1341
sg20
S'2018-01-04 22:14:00'
p1342
sg21
Nsg22
NssI355
(dp1343
g2
S'0355'
p1344
sg4
g5
sg6
Nsg7
g8
sg9
Nsg10
Nsg11
g12
sg13
I299
sg14
I14
sg308
I5
sg16
I2385
sg17
I15
sg18
S'2018-01-05 03:27:00'
p1345
sg20
S'2018-01-04 22:28:00'
p1346
sg21
Nsg22
NssI356
(dp1347
g2
S'0356'
p1348
sg4
g5
sg6
Nsg7
g8
sg9
Nsg10
Nsg11
g12
sg13
I300
sg14
I15
sg308
I5
sg16
I5887
sg17
I12
sg18
S'2018-01-05 03:30:00'
p1349
sg20
S'2018-01-04 22:30:00'
p1350
sg21
Nsg22
NssI357
(dp1351
g2
S'0357'
p1352
sg4
g25
sg6
Nsg7
g8
sg9
Nsg10
Nsg11
g12
sg13
I299
sg14
I12
sg308
I5
sg16
I5535
sg17
I17
sg18
S'2018-01-05 03:58:00'
p1353
sg20
S'2018-01-04 22:59:00'
p1354
sg21
Nsg22
NssI358
(dp1355
g2
S'0358'
p1356
sg4
g5
sg6
Nsg7
g8
sg9
Nsg10
Nsg11
g12
sg13
I310
sg14
I17
sg308
I5
sg16
I7039
sg17
I13
sg18
S'2018-01-05 04:26:00'
p1357
sg20
S'2018-01-04 23:16:00'
p1358
sg21
Nsg22
NssI359
(dp1359
g2
S'0359'
p1360
sg4
g5
sg6
Nsg7
g8
sg9
Nsg10
Nsg11
g12
sg13
I300
sg14
I13
sg308
I5
sg16
I6169
sg17
I11
sg18
S'2018-01-05 04:29:00'
p1361
sg20
S'2018-01-04 23:29:00'
p1362
sg21
Nsg22
NssI360
(dp1363
g2
S'0360'
p1364
sg4
g25
sg6
Nsg7
g8
sg9
Nsg10
Nsg11
g12
sg13
I321
sg14
I11
sg308
I5
sg16
I4308
sg17
I12
sg18
S'2018-01-05 04:57:00'
p1365
sg20
S'2018-01-04 23:36:00'
p1366
sg21
Nsg22
NssI361
(dp1367
g2
S'0361'
p1368
sg4
g25
sg6
Nsg7
g8
sg9
Nsg10
Nsg11
g12
sg13
I316
sg14
I12
sg308
I5
sg16
I4678
sg17
I15
sg18
S'2018-01-05 05:00:00'
p1369
sg20
S'2018-01-04 23:44:00'
p1370
sg21
Nsg22
NssI362
(dp1371
g2
S'0362'
p1372
sg4
g25
sg6
Nsg7
g8
sg9
Nsg10
Nsg11
g12
sg13
I315
sg14
I15
sg308
I5
sg16
I5016
sg17
I13
sg18
S'2018-01-05 05:03:00'
p1373
sg20
S'2018-01-04 23:48:00'
p1374
sg21
Nsg22
Nss.